---
triple:          'arm64-apple-darwin'
binary-path:     '/Users/cruisin/code/HW2_F'
relocations:
  - { offsetInCU: 0x4E37, offset: 0x4E37, size: 0x8, addend: 0x0, symName: __ZNSt3__16__math3powB8ne180100IdiLi0EEENS_9__promoteIT_T0_vE4typeES3_S4_, symObjAddr: 0x448, symBinAddr: 0x100001B84, symSize: 0x38 }
  - { offsetInCU: 0x4ED8, offset: 0x4ED8, size: 0x8, addend: 0x0, symName: __ZNSt3__16__math6tgammaB8ne180100IiLi0EEEdT_, symObjAddr: 0x418, symBinAddr: 0x100001B54, symSize: 0x30 }
  - { offsetInCU: 0x4F13, offset: 0x4F13, size: 0x8, addend: 0x0, symName: __ZNSt3__16__math3powB8ne180100IiEEddd, symObjAddr: 0x2DDC, symBinAddr: 0x100004518, symSize: 0x2C }
  - { offsetInCU: 0x5060, offset: 0x5060, size: 0x8, addend: 0x0, symName: __ZNSt3__124__put_character_sequenceB8ne180100IcNS_11char_traitsIcEEEERNS_13basic_ostreamIT_T0_EES7_PKS4_m, symObjAddr: 0x3F34, symBinAddr: 0x100005670, symSize: 0x1EC }
  - { offsetInCU: 0x85C8, offset: 0x85C8, size: 0x8, addend: 0x0, symName: __ZNSt3__1neB8ne180100IPK5PointEEbRKNS_11__wrap_iterIT_EES8_, symObjAddr: 0xBD0, symBinAddr: 0x10000230C, symSize: 0x34 }
  - { offsetInCU: 0x860B, offset: 0x860B, size: 0x8, addend: 0x0, symName: __ZNSt3__1lsB8ne180100INS_11char_traitsIcEEEERNS_13basic_ostreamIcT_EES6_PKc, symObjAddr: 0xC1C, symBinAddr: 0x100002358, symSize: 0x48 }
  - { offsetInCU: 0x8651, offset: 0x8651, size: 0x8, addend: 0x0, symName: __ZNSt3__1lsB8ne180100IcNS_11char_traitsIcEENS_9allocatorIcEEEERNS_13basic_ostreamIT_T0_EES9_RKNS_12basic_stringIS6_S7_T1_EE, symObjAddr: 0xCDC, symBinAddr: 0x100002418, symSize: 0x4C }
  - { offsetInCU: 0x86B4, offset: 0x86B4, size: 0x8, addend: 0x0, symName: __ZNSt3__1neB8ne180100IPiEEbRKNS_11__wrap_iterIT_EES6_, symObjAddr: 0x104C, symBinAddr: 0x100002788, symSize: 0x34 }
  - { offsetInCU: 0x86F7, offset: 0x86F7, size: 0x8, addend: 0x0, symName: __ZNSt3__1plB8ne180100IcNS_11char_traitsIcEENS_9allocatorIcEEEENS_12basic_stringIT_T0_T1_EEOS9_PKS6_, symObjAddr: 0x1098, symBinAddr: 0x1000027D4, symSize: 0x40 }
  - { offsetInCU: 0x874F, offset: 0x874F, size: 0x8, addend: 0x0, symName: __ZNSt3__1plB8ne180100IcNS_11char_traitsIcEENS_9allocatorIcEEEENS_12basic_stringIT_T0_T1_EEPKS6_OS9_, symObjAddr: 0x10D8, symBinAddr: 0x100002814, symSize: 0x44 }
  - { offsetInCU: 0x87A7, offset: 0x87A7, size: 0x8, addend: 0x0, symName: __ZNSt3__1eqB8ne180100IPK5PointEEbRKNS_11__wrap_iterIT_EES8_, symObjAddr: 0x1194, symBinAddr: 0x1000028D0, symSize: 0x48 }
  - { offsetInCU: 0x87EA, offset: 0x87EA, size: 0x8, addend: 0x0, symName: __ZNSt3__1eqB8ne180100IPiEEbRKNS_11__wrap_iterIT_EES6_, symObjAddr: 0x1280, symBinAddr: 0x1000029BC, symSize: 0x48 }
  - { offsetInCU: 0x882D, offset: 0x882D, size: 0x8, addend: 0x0, symName: __ZNSt3__112__to_addressB8ne180100I5PointEEPT_S3_, symObjAddr: 0x16F0, symBinAddr: 0x100002E2C, symSize: 0x14 }
  - { offsetInCU: 0x8862, offset: 0x8862, size: 0x8, addend: 0x0, symName: __ZNSt3__119__libcpp_deallocateB8ne180100EPvmm, symObjAddr: 0x1758, symBinAddr: 0x100002E94, symSize: 0x30 }
  - { offsetInCU: 0x88AA, offset: 0x88AA, size: 0x8, addend: 0x0, symName: __ZNSt3__127__do_deallocate_handle_sizeB8ne180100IJEEEvPvmDpT_, symObjAddr: 0x1788, symBinAddr: 0x100002EC4, symSize: 0x28 }
  - { offsetInCU: 0x88E8, offset: 0x88E8, size: 0x8, addend: 0x0, symName: __ZNSt3__124__libcpp_operator_deleteB8ne180100IJPvEEEvDpT_, symObjAddr: 0x17B0, symBinAddr: 0x100002EEC, symSize: 0x24 }
  - { offsetInCU: 0x891D, offset: 0x891D, size: 0x8, addend: 0x0, symName: __ZNSt3__13maxB8ne180100ImEERKT_S3_S3_, symObjAddr: 0x1E4C, symBinAddr: 0x100003588, symSize: 0x2C }
  - { offsetInCU: 0x8960, offset: 0x8960, size: 0x8, addend: 0x0, symName: __ZNSt3__13minB8ne180100ImEERKT_S3_S3_, symObjAddr: 0x1E78, symBinAddr: 0x1000035B4, symSize: 0x2C }
  - { offsetInCU: 0x8BA4, offset: 0x8BA4, size: 0x8, addend: 0x0, symName: __ZNSt3__13minB8ne180100ImNS_6__lessIvvEEEERKT_S5_S5_T0_, symObjAddr: 0x1F04, symBinAddr: 0x100003640, symSize: 0x54 }
  - { offsetInCU: 0x8C43, offset: 0x8C43, size: 0x8, addend: 0x0, symName: __ZNSt3__120__throw_length_errorB8ne180100EPKc, symObjAddr: 0x1FE0, symBinAddr: 0x10000371C, symSize: 0x64 }
  - { offsetInCU: 0x8C6B, offset: 0x8C6B, size: 0x8, addend: 0x0, symName: __ZNSt3__13maxB8ne180100ImNS_6__lessIvvEEEERKT_S5_S5_T0_, symObjAddr: 0x20C4, symBinAddr: 0x100003800, symSize: 0x54 }
  - { offsetInCU: 0x8CC5, offset: 0x8CC5, size: 0x8, addend: 0x0, symName: __ZNSt3__119__allocate_at_leastB8ne180100INS_9allocatorI5PointEEEENS_19__allocation_resultINS_16allocator_traitsIT_E7pointerEEERS6_m, symObjAddr: 0x2228, symBinAddr: 0x100003964, symSize: 0x40 }
  - { offsetInCU: 0x8D08, offset: 0x8D08, size: 0x8, addend: 0x0, symName: __ZNSt3__117__libcpp_allocateB8ne180100Emm, symObjAddr: 0x23AC, symBinAddr: 0x100003AE8, symSize: 0x28 }
  - { offsetInCU: 0x8D45, offset: 0x8D45, size: 0x8, addend: 0x0, symName: __ZNSt3__121__libcpp_operator_newB8ne180100IJmEEEPvDpT_, symObjAddr: 0x23D4, symBinAddr: 0x100003B10, symSize: 0x24 }
  - { offsetInCU: 0x8D7E, offset: 0x8D7E, size: 0x8, addend: 0x0, symName: __ZNSt3__142__uninitialized_allocator_move_if_noexceptB8ne180100INS_9allocatorI5PointEENS_16reverse_iteratorIPS2_EES6_S2_vEET1_RT_T0_SA_S7_, symObjAddr: 0x245C, symBinAddr: 0x100003B98, symSize: 0x78 }
  - { offsetInCU: 0x8DFB, offset: 0x8DFB, size: 0x8, addend: 0x0, symName: __ZNSt3__14swapB8ne180100IP5PointEENS_9enable_ifIXaasr21is_move_constructibleIT_EE5valuesr18is_move_assignableIS4_EE5valueEvE4typeERS4_S7_, symObjAddr: 0x2520, symBinAddr: 0x100003C5C, symSize: 0x3C }
  - { offsetInCU: 0x8E4C, offset: 0x8E4C, size: 0x8, addend: 0x0, symName: __ZNSt3__14moveB8ne180100INS_16reverse_iteratorIP5PointEES4_EET0_T_S6_S5_, symObjAddr: 0x2570, symBinAddr: 0x100003CAC, symSize: 0x78 }
  - { offsetInCU: 0x8EA6, offset: 0x8EA6, size: 0x8, addend: 0x0, symName: __ZNSt3__16__moveB8ne180100INS_17_ClassicAlgPolicyENS_16reverse_iteratorIP5PointEES5_S5_EENS_4pairIT0_T2_EES7_T1_S8_, symObjAddr: 0x25E8, symBinAddr: 0x100003D24, symSize: 0x64 }
  - { offsetInCU: 0x8F12, offset: 0x8F12, size: 0x8, addend: 0x0, symName: __ZNSt3__123__dispatch_copy_or_moveB8ne180100INS_17_ClassicAlgPolicyENS_11__move_loopIS1_EENS_14__move_trivialENS_16reverse_iteratorIP5PointEES8_S8_EENS_4pairIT2_T4_EESA_T3_SB_, symObjAddr: 0x264C, symBinAddr: 0x100003D88, symSize: 0x64 }
  - { offsetInCU: 0x8F90, offset: 0x8F90, size: 0x8, addend: 0x0, symName: __ZNSt3__121__unwrap_and_dispatchB8ne180100INS_10__overloadINS_11__move_loopINS_17_ClassicAlgPolicyEEENS_14__move_trivialEEENS_16reverse_iteratorIP5PointEESA_SA_Li0EEENS_4pairIT0_T2_EESC_T1_SD_, symObjAddr: 0x26B0, symBinAddr: 0x100003DEC, symSize: 0x12C }
  - { offsetInCU: 0x9020, offset: 0x9020, size: 0x8, addend: 0x0, symName: __ZNSt3__114__unwrap_rangeB8ne180100INS_16reverse_iteratorIP5PointEES4_EENS_4pairIT0_S6_EET_S8_, symObjAddr: 0x27DC, symBinAddr: 0x100003F18, symSize: 0x84 }
  - { offsetInCU: 0x919B, offset: 0x919B, size: 0x8, addend: 0x0, symName: __ZNSt3__113__unwrap_iterB8ne180100INS_16reverse_iteratorIP5PointEENS_18__unwrap_iter_implIS4_Lb0EEELi0EEEDTclsrT0_8__unwrapclsr3stdE7declvalIT_EEEES8_, symObjAddr: 0x2900, symBinAddr: 0x10000403C, symSize: 0x44 }
  - { offsetInCU: 0x91DF, offset: 0x91DF, size: 0x8, addend: 0x0, symName: __ZNSt3__19make_pairB8ne180100INS_16reverse_iteratorIP5PointEES4_EENS_4pairINS_18__unwrap_ref_decayIT_E4typeENS6_IT0_E4typeEEEOS7_OSA_, symObjAddr: 0x2944, symBinAddr: 0x100004080, symSize: 0x38 }
  - { offsetInCU: 0x922E, offset: 0x922E, size: 0x8, addend: 0x0, symName: __ZNSt3__114__rewrap_rangeB8ne180100INS_16reverse_iteratorIP5PointEES4_EET_S5_T0_, symObjAddr: 0x297C, symBinAddr: 0x1000040B8, symSize: 0x5C }
  - { offsetInCU: 0x927A, offset: 0x927A, size: 0x8, addend: 0x0, symName: __ZNSt3__113__rewrap_iterB8ne180100INS_16reverse_iteratorIP5PointEES4_NS_18__unwrap_iter_implIS4_Lb0EEEEET_S7_T0_, symObjAddr: 0x29D8, symBinAddr: 0x100004114, symSize: 0x74 }
  - { offsetInCU: 0x92CF, offset: 0x92CF, size: 0x8, addend: 0x0, symName: __ZNSt3__1neB8ne180100IP5PointS2_EEbRKNS_16reverse_iteratorIT_EERKNS3_IT0_EE, symObjAddr: 0x2A4C, symBinAddr: 0x100004188, symSize: 0x48 }
  - { offsetInCU: 0x93C5, offset: 0x93C5, size: 0x8, addend: 0x0, symName: __ZNSt3__122__make_exception_guardB8ne180100INS_6vectorI5PointNS_9allocatorIS2_EEE16__destroy_vectorEEENS_28__exception_guard_exceptionsIT_EES8_, symObjAddr: 0x2F28, symBinAddr: 0x100004664, symSize: 0x40 }
  - { offsetInCU: 0x93FA, offset: 0x93FA, size: 0x8, addend: 0x0, symName: __ZNSt3__130__uninitialized_allocator_copyB8ne180100INS_9allocatorI5PointEEPKS2_S5_PS2_EET2_RT_T0_T1_S7_, symObjAddr: 0x3190, symBinAddr: 0x1000048CC, symSize: 0x80 }
  - { offsetInCU: 0x9497, offset: 0x9497, size: 0x8, addend: 0x0, symName: __ZNSt3__114__unwrap_rangeB8ne180100IPK5PointS3_EENS_4pairIT0_S5_EET_S7_, symObjAddr: 0x3210, symBinAddr: 0x10000494C, symSize: 0x60 }
  - { offsetInCU: 0x94E3, offset: 0x94E3, size: 0x8, addend: 0x0, symName: __ZNSt3__135__uninitialized_allocator_copy_implB8ne180100INS_9allocatorI5PointEEKS2_S2_S2_LPv0EEEPT2_RT_PT0_SB_S7_, symObjAddr: 0x3270, symBinAddr: 0x1000049AC, symSize: 0x38 }
  - { offsetInCU: 0x9564, offset: 0x9564, size: 0x8, addend: 0x0, symName: __ZNSt3__113__unwrap_iterB8ne180100IP5PointNS_18__unwrap_iter_implIS2_Lb1EEELi0EEEDTclsrT0_8__unwrapclsr3stdE7declvalIT_EEEES6_, symObjAddr: 0x32A8, symBinAddr: 0x1000049E4, symSize: 0x24 }
  - { offsetInCU: 0x95A8, offset: 0x95A8, size: 0x8, addend: 0x0, symName: __ZNSt3__113__rewrap_iterB8ne180100IP5PointS2_NS_18__unwrap_iter_implIS2_Lb1EEEEET_S5_T0_, symObjAddr: 0x32CC, symBinAddr: 0x100004A08, symSize: 0x3C }
  - { offsetInCU: 0x95FD, offset: 0x95FD, size: 0x8, addend: 0x0, symName: __ZNSt3__19make_pairB8ne180100IPK5PointS3_EENS_4pairINS_18__unwrap_ref_decayIT_E4typeENS5_IT0_E4typeEEEOS6_OS9_, symObjAddr: 0x3308, symBinAddr: 0x100004A44, symSize: 0x38 }
  - { offsetInCU: 0x964C, offset: 0x964C, size: 0x8, addend: 0x0, symName: __ZNSt3__113__unwrap_iterB8ne180100IPK5PointNS_18__unwrap_iter_implIS3_Lb1EEELi0EEEDTclsrT0_8__unwrapclsr3stdE7declvalIT_EEEES7_, symObjAddr: 0x3340, symBinAddr: 0x100004A7C, symSize: 0x24 }
  - { offsetInCU: 0x97B7, offset: 0x97B7, size: 0x8, addend: 0x0, symName: __ZNSt3__112__to_addressB8ne180100IK5PointEEPT_S4_, symObjAddr: 0x33F8, symBinAddr: 0x100004B34, symSize: 0x14 }
  - { offsetInCU: 0x97EC, offset: 0x97EC, size: 0x8, addend: 0x0, symName: __ZNSt3__14copyB8ne180100IPK5PointPS1_EET0_T_S6_S5_, symObjAddr: 0x340C, symBinAddr: 0x100004B48, symSize: 0x40 }
  - { offsetInCU: 0x9846, offset: 0x9846, size: 0x8, addend: 0x0, symName: __ZNSt3__16__copyB8ne180100INS_17_ClassicAlgPolicyEPK5PointS4_PS2_EENS_4pairIT0_T2_EES7_T1_S8_, symObjAddr: 0x344C, symBinAddr: 0x100004B88, symSize: 0x44 }
  - { offsetInCU: 0x98B2, offset: 0x98B2, size: 0x8, addend: 0x0, symName: __ZNSt3__123__dispatch_copy_or_moveB8ne180100INS_17_ClassicAlgPolicyENS_11__copy_loopIS1_EENS_14__copy_trivialEPK5PointS7_PS5_EENS_4pairIT2_T4_EESA_T3_SB_, symObjAddr: 0x3490, symBinAddr: 0x100004BCC, symSize: 0x44 }
  - { offsetInCU: 0x9930, offset: 0x9930, size: 0x8, addend: 0x0, symName: __ZNSt3__121__unwrap_and_dispatchB8ne180100INS_10__overloadINS_11__copy_loopINS_17_ClassicAlgPolicyEEENS_14__copy_trivialEEEPK5PointS9_PS7_Li0EEENS_4pairIT0_T2_EESC_T1_SD_, symObjAddr: 0x34D4, symBinAddr: 0x100004C10, symSize: 0xB4 }
  - { offsetInCU: 0x9B43, offset: 0x9B43, size: 0x8, addend: 0x0, symName: __ZNSt3__19make_pairB8ne180100IPK5PointPS1_EENS_4pairINS_18__unwrap_ref_decayIT_E4typeENS6_IT0_E4typeEEEOS7_OSA_, symObjAddr: 0x35D0, symBinAddr: 0x100004D0C, symSize: 0x38 }
  - { offsetInCU: 0x9B92, offset: 0x9B92, size: 0x8, addend: 0x0, symName: __ZNSt3__114__rewrap_rangeB8ne180100IPK5PointS3_EET_S4_T0_, symObjAddr: 0x3608, symBinAddr: 0x100004D44, symSize: 0x2C }
  - { offsetInCU: 0x9BDE, offset: 0x9BDE, size: 0x8, addend: 0x0, symName: __ZNSt3__119__copy_trivial_implB8ne180100IK5PointS1_EENS_4pairIPT_PT0_EES5_S5_S7_, symObjAddr: 0x3634, symBinAddr: 0x100004D70, symSize: 0x80 }
  - { offsetInCU: 0x9C46, offset: 0x9C46, size: 0x8, addend: 0x0, symName: __ZNSt3__119__constexpr_memmoveB8ne180100I5PointKS1_Li0EEEPT_S4_PT0_NS_15__element_countE, symObjAddr: 0x36B4, symBinAddr: 0x100004DF0, symSize: 0x64 }
  - { offsetInCU: 0x9CB4, offset: 0x9CB4, size: 0x8, addend: 0x0, symName: __ZNSt3__19make_pairB8ne180100IRPK5PointPS1_EENS_4pairINS_18__unwrap_ref_decayIT_E4typeENS7_IT0_E4typeEEEOS8_OSB_, symObjAddr: 0x3718, symBinAddr: 0x100004E54, symSize: 0x38 }
  - { offsetInCU: 0x9D03, offset: 0x9D03, size: 0x8, addend: 0x0, symName: __ZNSt3__113__rewrap_iterB8ne180100IPK5PointS3_NS_18__unwrap_iter_implIS3_Lb1EEEEET_S6_T0_, symObjAddr: 0x3830, symBinAddr: 0x100004F6C, symSize: 0x3C }
  - { offsetInCU: 0x9DAB, offset: 0x9DAB, size: 0x8, addend: 0x0, symName: __ZNSt3__112__to_addressB8ne180100IKcEEPT_S3_, symObjAddr: 0x3D1C, symBinAddr: 0x100005458, symSize: 0x14 }
  - { offsetInCU: 0x9E13, offset: 0x9E13, size: 0x8, addend: 0x0, symName: __ZNSt3__116__pad_and_outputB8ne180100IcNS_11char_traitsIcEEEENS_19ostreambuf_iteratorIT_T0_EES6_PKS4_S8_S8_RNS_8ios_baseES4_, symObjAddr: 0x4170, symBinAddr: 0x1000058AC, symSize: 0x240 }
  - { offsetInCU: 0x9EE2, offset: 0x9EE2, size: 0x8, addend: 0x0, symName: __ZNSt3__19use_facetB8ne180100INS_5ctypeIcEEEERKT_RKNS_6localeE, symObjAddr: 0x47C0, symBinAddr: 0x100005EFC, symSize: 0x2C }
  - { offsetInCU: 0xA3AF, offset: 0xA3AF, size: 0x8, addend: 0x0, symName: __ZNSt3__118__constexpr_strlenB8ne180100EPKc, symObjAddr: 0x4824, symBinAddr: 0x100005F60, symSize: 0x24 }
  - { offsetInCU: 0xA3DB, offset: 0xA3DB, size: 0x8, addend: 0x0, symName: __ZNSt3__122__make_exception_guardB8ne180100INS_6vectorIiNS_9allocatorIiEEE16__destroy_vectorEEENS_28__exception_guard_exceptionsIT_EES7_, symObjAddr: 0x4A54, symBinAddr: 0x100006190, symSize: 0x40 }
  - { offsetInCU: 0xA410, offset: 0xA410, size: 0x8, addend: 0x0, symName: __ZNSt3__119__allocate_at_leastB8ne180100INS_9allocatorIiEEEENS_19__allocation_resultINS_16allocator_traitsIT_E7pointerEEERS5_m, symObjAddr: 0x4E54, symBinAddr: 0x100006590, symSize: 0x40 }
  - { offsetInCU: 0xA453, offset: 0xA453, size: 0x8, addend: 0x0, symName: __ZNSt3__130__uninitialized_allocator_copyB8ne180100INS_9allocatorIiEEPKiS4_PiEET2_RT_T0_T1_S6_, symObjAddr: 0x5094, symBinAddr: 0x1000067D0, symSize: 0x80 }
  - { offsetInCU: 0xA4F0, offset: 0xA4F0, size: 0x8, addend: 0x0, symName: __ZNSt3__114__unwrap_rangeB8ne180100IPKiS2_EENS_4pairIT0_S4_EET_S6_, symObjAddr: 0x5184, symBinAddr: 0x1000068C0, symSize: 0x60 }
  - { offsetInCU: 0xA53C, offset: 0xA53C, size: 0x8, addend: 0x0, symName: __ZNSt3__135__uninitialized_allocator_copy_implB8ne180100INS_9allocatorIiEEKiiiLPv0EEEPT2_RT_PT0_SA_S6_, symObjAddr: 0x51E4, symBinAddr: 0x100006920, symSize: 0x38 }
  - { offsetInCU: 0xA5BD, offset: 0xA5BD, size: 0x8, addend: 0x0, symName: __ZNSt3__113__unwrap_iterB8ne180100IPiNS_18__unwrap_iter_implIS1_Lb1EEELi0EEEDTclsrT0_8__unwrapclsr3stdE7declvalIT_EEEES5_, symObjAddr: 0x521C, symBinAddr: 0x100006958, symSize: 0x24 }
  - { offsetInCU: 0xA601, offset: 0xA601, size: 0x8, addend: 0x0, symName: __ZNSt3__113__rewrap_iterB8ne180100IPiS1_NS_18__unwrap_iter_implIS1_Lb1EEEEET_S4_T0_, symObjAddr: 0x5240, symBinAddr: 0x10000697C, symSize: 0x3C }
  - { offsetInCU: 0xA656, offset: 0xA656, size: 0x8, addend: 0x0, symName: __ZNSt3__19make_pairB8ne180100IPKiS2_EENS_4pairINS_18__unwrap_ref_decayIT_E4typeENS4_IT0_E4typeEEEOS5_OS8_, symObjAddr: 0x527C, symBinAddr: 0x1000069B8, symSize: 0x38 }
  - { offsetInCU: 0xA6A5, offset: 0xA6A5, size: 0x8, addend: 0x0, symName: __ZNSt3__113__unwrap_iterB8ne180100IPKiNS_18__unwrap_iter_implIS2_Lb1EEELi0EEEDTclsrT0_8__unwrapclsr3stdE7declvalIT_EEEES6_, symObjAddr: 0x52B4, symBinAddr: 0x1000069F0, symSize: 0x24 }
  - { offsetInCU: 0xA810, offset: 0xA810, size: 0x8, addend: 0x0, symName: __ZNSt3__112__to_addressB8ne180100IKiEEPT_S3_, symObjAddr: 0x536C, symBinAddr: 0x100006AA8, symSize: 0x14 }
  - { offsetInCU: 0xA845, offset: 0xA845, size: 0x8, addend: 0x0, symName: __ZNSt3__14copyB8ne180100IPKiPiEET0_T_S5_S4_, symObjAddr: 0x5380, symBinAddr: 0x100006ABC, symSize: 0x40 }
  - { offsetInCU: 0xA89F, offset: 0xA89F, size: 0x8, addend: 0x0, symName: __ZNSt3__16__copyB8ne180100INS_17_ClassicAlgPolicyEPKiS3_PiEENS_4pairIT0_T2_EES6_T1_S7_, symObjAddr: 0x53C0, symBinAddr: 0x100006AFC, symSize: 0x44 }
  - { offsetInCU: 0xA90B, offset: 0xA90B, size: 0x8, addend: 0x0, symName: __ZNSt3__123__dispatch_copy_or_moveB8ne180100INS_17_ClassicAlgPolicyENS_11__copy_loopIS1_EENS_14__copy_trivialEPKiS6_PiEENS_4pairIT2_T4_EES9_T3_SA_, symObjAddr: 0x5404, symBinAddr: 0x100006B40, symSize: 0x44 }
  - { offsetInCU: 0xA989, offset: 0xA989, size: 0x8, addend: 0x0, symName: __ZNSt3__121__unwrap_and_dispatchB8ne180100INS_10__overloadINS_11__copy_loopINS_17_ClassicAlgPolicyEEENS_14__copy_trivialEEEPKiS8_PiLi0EEENS_4pairIT0_T2_EESB_T1_SC_, symObjAddr: 0x5448, symBinAddr: 0x100006B84, symSize: 0xB4 }
  - { offsetInCU: 0xAB1A, offset: 0xAB1A, size: 0x8, addend: 0x0, symName: __ZNSt3__19make_pairB8ne180100IPKiPiEENS_4pairINS_18__unwrap_ref_decayIT_E4typeENS5_IT0_E4typeEEEOS6_OS9_, symObjAddr: 0x5544, symBinAddr: 0x100006C80, symSize: 0x38 }
  - { offsetInCU: 0xAB69, offset: 0xAB69, size: 0x8, addend: 0x0, symName: __ZNSt3__114__rewrap_rangeB8ne180100IPKiS2_EET_S3_T0_, symObjAddr: 0x557C, symBinAddr: 0x100006CB8, symSize: 0x2C }
  - { offsetInCU: 0xABB5, offset: 0xABB5, size: 0x8, addend: 0x0, symName: __ZNSt3__119__copy_trivial_implB8ne180100IKiiEENS_4pairIPT_PT0_EES4_S4_S6_, symObjAddr: 0x55A8, symBinAddr: 0x100006CE4, symSize: 0x80 }
  - { offsetInCU: 0xAC1D, offset: 0xAC1D, size: 0x8, addend: 0x0, symName: __ZNSt3__119__constexpr_memmoveB8ne180100IiKiLi0EEEPT_S3_PT0_NS_15__element_countE, symObjAddr: 0x5628, symBinAddr: 0x100006D64, symSize: 0x64 }
  - { offsetInCU: 0xAC8B, offset: 0xAC8B, size: 0x8, addend: 0x0, symName: __ZNSt3__19make_pairB8ne180100IRPKiPiEENS_4pairINS_18__unwrap_ref_decayIT_E4typeENS6_IT0_E4typeEEEOS7_OSA_, symObjAddr: 0x568C, symBinAddr: 0x100006DC8, symSize: 0x38 }
  - { offsetInCU: 0xACDA, offset: 0xACDA, size: 0x8, addend: 0x0, symName: __ZNSt3__113__rewrap_iterB8ne180100IPKiS2_NS_18__unwrap_iter_implIS2_Lb1EEEEET_S5_T0_, symObjAddr: 0x57A4, symBinAddr: 0x100006EE0, symSize: 0x3C }
  - { offsetInCU: 0xAD82, offset: 0xAD82, size: 0x8, addend: 0x0, symName: __ZNSt3__112__to_addressB8ne180100IiEEPT_S2_, symObjAddr: 0x5854, symBinAddr: 0x100006F90, symSize: 0x14 }
  - { offsetInCU: 0xB212, offset: 0xB212, size: 0x8, addend: 0x0, symName: __ZSt28__throw_bad_array_new_lengthB8ne180100v, symObjAddr: 0x2378, symBinAddr: 0x100003AB4, symSize: 0x34 }
  - { offsetInCU: 0xB73E, offset: 0xB73E, size: 0x8, addend: 0x0, symName: __ZNSt3__16vectorI5PointNS_9allocatorIS1_EEE26__swap_out_circular_bufferERNS_14__split_bufferIS1_RS3_EE, symObjAddr: 0x1C94, symBinAddr: 0x1000033D0, symSize: 0x110 }
  - { offsetInCU: 0xDC79, offset: 0xDC79, size: 0x8, addend: 0x0, symName: __Z19generateHeartPointsi, symObjAddr: 0x0, symBinAddr: 0x10000173C, symSize: 0x158 }
  - { offsetInCU: 0xDD02, offset: 0xDD02, size: 0x8, addend: 0x0, symName: __ZNSt3__16vectorI5PointNS_9allocatorIS1_EEEC1B8ne180100Ev, symObjAddr: 0x158, symBinAddr: 0x100001894, symSize: 0x2C }
  - { offsetInCU: 0xDD2F, offset: 0xDD2F, size: 0x8, addend: 0x0, symName: __ZNSt3__16vectorI5PointNS_9allocatorIS1_EEE12emplace_backIJRdS6_EEEvDpOT_, symObjAddr: 0x184, symBinAddr: 0x1000018C0, symSize: 0x9C }
  - { offsetInCU: 0xDD93, offset: 0xDD93, size: 0x8, addend: 0x0, symName: __ZNSt3__16vectorI5PointNS_9allocatorIS1_EEED1B8ne180100Ev, symObjAddr: 0x220, symBinAddr: 0x10000195C, symSize: 0x2C }
  - { offsetInCU: 0xDDBB, offset: 0xDDBB, size: 0x8, addend: 0x0, symName: __Z14evaluateBezierRKNSt3__16vectorI5PointNS_9allocatorIS1_EEEEd, symObjAddr: 0x24C, symBinAddr: 0x100001988, symSize: 0x168 }
  - { offsetInCU: 0xDE5A, offset: 0xDE5A, size: 0x8, addend: 0x0, symName: __ZNKSt3__16vectorI5PointNS_9allocatorIS1_EEE4sizeB8ne180100Ev, symObjAddr: 0x3B4, symBinAddr: 0x100001AF0, symSize: 0x28 }
  - { offsetInCU: 0xDE7F, offset: 0xDE7F, size: 0x8, addend: 0x0, symName: __ZN5PointC1Edd, symObjAddr: 0x3DC, symBinAddr: 0x100001B18, symSize: 0x3C }
  - { offsetInCU: 0xDEC4, offset: 0xDEC4, size: 0x8, addend: 0x0, symName: __ZNKSt3__16vectorI5PointNS_9allocatorIS1_EEEixB8ne180100Em, symObjAddr: 0x480, symBinAddr: 0x100001BBC, symSize: 0x24 }
  - { offsetInCU: 0xDEF9, offset: 0xDEF9, size: 0x8, addend: 0x0, symName: __Z26approximateHeartWithBezierRKNSt3__16vectorI5PointNS_9allocatorIS1_EEEEi, symObjAddr: 0x4A4, symBinAddr: 0x100001BE0, symSize: 0x268 }
  - { offsetInCU: 0xDFB0, offset: 0xDFB0, size: 0x8, addend: 0x0, symName: __ZNSt3__16vectorI5PointNS_9allocatorIS1_EEEC1B8ne180100ESt16initializer_listIS1_E, symObjAddr: 0x70C, symBinAddr: 0x100001E48, symSize: 0x3C }
  - { offsetInCU: 0xDFE9, offset: 0xDFE9, size: 0x8, addend: 0x0, symName: __ZNSt3__16vectorI5PointNS_9allocatorIS1_EEE9push_backB8ne180100EOS1_, symObjAddr: 0x748, symBinAddr: 0x100001E84, symSize: 0x90 }
  - { offsetInCU: 0xE02E, offset: 0xE02E, size: 0x8, addend: 0x0, symName: __Z16savePointsToFileRKNSt3__16vectorI5PointNS_9allocatorIS1_EEEERKNS_12basic_stringIcNS_11char_traitsIcEENS2_IcEEEE, symObjAddr: 0x7D8, symBinAddr: 0x100001F14, symSize: 0x200 }
  - { offsetInCU: 0xE165, offset: 0xE165, size: 0x8, addend: 0x0, symName: __ZNSt3__114basic_ofstreamIcNS_11char_traitsIcEEEC1ERKNS_12basic_stringIcS2_NS_9allocatorIcEEEEj, symObjAddr: 0x9D8, symBinAddr: 0x100002114, symSize: 0x16C }
  - { offsetInCU: 0xE1AD, offset: 0xE1AD, size: 0x8, addend: 0x0, symName: __ZNKSt3__114basic_ofstreamIcNS_11char_traitsIcEEE7is_openEv, symObjAddr: 0xB44, symBinAddr: 0x100002280, symSize: 0x2C }
  - { offsetInCU: 0xE1D3, offset: 0xE1D3, size: 0x8, addend: 0x0, symName: __ZNKSt3__16vectorI5PointNS_9allocatorIS1_EEE5beginB8ne180100Ev, symObjAddr: 0xB70, symBinAddr: 0x1000022AC, symSize: 0x30 }
  - { offsetInCU: 0xE1F9, offset: 0xE1F9, size: 0x8, addend: 0x0, symName: __ZNKSt3__16vectorI5PointNS_9allocatorIS1_EEE3endB8ne180100Ev, symObjAddr: 0xBA0, symBinAddr: 0x1000022DC, symSize: 0x30 }
  - { offsetInCU: 0xE220, offset: 0xE220, size: 0x8, addend: 0x0, symName: __ZNKSt3__111__wrap_iterIPK5PointEdeB8ne180100Ev, symObjAddr: 0xC04, symBinAddr: 0x100002340, symSize: 0x18 }
  - { offsetInCU: 0xE245, offset: 0xE245, size: 0x8, addend: 0x0, symName: __ZNSt3__111__wrap_iterIPK5PointEppB8ne180100Ev, symObjAddr: 0xC64, symBinAddr: 0x1000023A0, symSize: 0x20 }
  - { offsetInCU: 0xE269, offset: 0xE269, size: 0x8, addend: 0x0, symName: __ZNSt3__114basic_ofstreamIcNS_11char_traitsIcEEE5closeEv, symObjAddr: 0xC84, symBinAddr: 0x1000023C0, symSize: 0x58 }
  - { offsetInCU: 0xE295, offset: 0xE295, size: 0x8, addend: 0x0, symName: __ZNSt3__114basic_ofstreamIcNS_11char_traitsIcEEED1Ev, symObjAddr: 0xD28, symBinAddr: 0x100002464, symSize: 0x40 }
  - { offsetInCU: 0xE2C1, offset: 0xE2C1, size: 0x8, addend: 0x0, symName: _main, symObjAddr: 0xD68, symBinAddr: 0x1000024A4, symSize: 0x248 }
  - { offsetInCU: 0xE36B, offset: 0xE36B, size: 0x8, addend: 0x0, symName: __ZNSt3__16vectorIiNS_9allocatorIiEEEC1B8ne180100ESt16initializer_listIiE, symObjAddr: 0xFB0, symBinAddr: 0x1000026EC, symSize: 0x3C }
  - { offsetInCU: 0xE3A4, offset: 0xE3A4, size: 0x8, addend: 0x0, symName: __ZNSt3__16vectorIiNS_9allocatorIiEEE5beginB8ne180100Ev, symObjAddr: 0xFEC, symBinAddr: 0x100002728, symSize: 0x30 }
  - { offsetInCU: 0xE3CA, offset: 0xE3CA, size: 0x8, addend: 0x0, symName: __ZNSt3__16vectorIiNS_9allocatorIiEEE3endB8ne180100Ev, symObjAddr: 0x101C, symBinAddr: 0x100002758, symSize: 0x30 }
  - { offsetInCU: 0xE3F1, offset: 0xE3F1, size: 0x8, addend: 0x0, symName: __ZNKSt3__111__wrap_iterIPiEdeB8ne180100Ev, symObjAddr: 0x1080, symBinAddr: 0x1000027BC, symSize: 0x18 }
  - { offsetInCU: 0xE416, offset: 0xE416, size: 0x8, addend: 0x0, symName: __ZNSt3__111__wrap_iterIPiEppB8ne180100Ev, symObjAddr: 0x111C, symBinAddr: 0x100002858, symSize: 0x20 }
  - { offsetInCU: 0xE43B, offset: 0xE43B, size: 0x8, addend: 0x0, symName: __ZNSt3__16vectorIiNS_9allocatorIiEEED1B8ne180100Ev, symObjAddr: 0x113C, symBinAddr: 0x100002878, symSize: 0x2C }
  - { offsetInCU: 0xE464, offset: 0xE464, size: 0x8, addend: 0x0, symName: __ZN5PointC2Edd, symObjAddr: 0x1168, symBinAddr: 0x1000028A4, symSize: 0x2C }
  - { offsetInCU: 0xE4A9, offset: 0xE4A9, size: 0x8, addend: 0x0, symName: __ZNKSt3__111__wrap_iterIPK5PointE4baseB8ne180100Ev, symObjAddr: 0x11DC, symBinAddr: 0x100002918, symSize: 0x18 }
  - { offsetInCU: 0xE4CE, offset: 0xE4CE, size: 0x8, addend: 0x0, symName: __ZNSt3__114basic_ofstreamIcNS_11char_traitsIcEEED2Ev, symObjAddr: 0x11F4, symBinAddr: 0x100002930, symSize: 0x64 }
  - { offsetInCU: 0xE506, offset: 0xE506, size: 0x8, addend: 0x0, symName: __ZTv0_n24_NSt3__114basic_ofstreamIcNS_11char_traitsIcEEED1Ev, symObjAddr: 0x1258, symBinAddr: 0x100002994, symSize: 0x28 }
  - { offsetInCU: 0xE51D, offset: 0xE51D, size: 0x8, addend: 0x0, symName: __ZNKSt3__111__wrap_iterIPiE4baseB8ne180100Ev, symObjAddr: 0x12C8, symBinAddr: 0x100002A04, symSize: 0x18 }
  - { offsetInCU: 0xE542, offset: 0xE542, size: 0x8, addend: 0x0, symName: __ZNSt3__16vectorI5PointNS_9allocatorIS1_EEEC2B8ne180100Ev, symObjAddr: 0x12E0, symBinAddr: 0x100002A1C, symSize: 0x4C }
  - { offsetInCU: 0xE575, offset: 0xE575, size: 0x8, addend: 0x0, symName: __ZNSt3__117__compressed_pairIP5PointNS_9allocatorIS1_EEEC1B8ne180100IDnNS_18__default_init_tagEEEOT_OT0_, symObjAddr: 0x132C, symBinAddr: 0x100002A68, symSize: 0x3C }
  - { offsetInCU: 0xE5CC, offset: 0xE5CC, size: 0x8, addend: 0x0, symName: __ZNSt3__117__compressed_pairIP5PointNS_9allocatorIS1_EEEC2B8ne180100IDnNS_18__default_init_tagEEEOT_OT0_, symObjAddr: 0x1374, symBinAddr: 0x100002AB0, symSize: 0x40 }
  - { offsetInCU: 0xE623, offset: 0xE623, size: 0x8, addend: 0x0, symName: __ZNSt3__122__compressed_pair_elemIP5PointLi0ELb0EEC2B8ne180100IDnvEEOT_, symObjAddr: 0x13B4, symBinAddr: 0x100002AF0, symSize: 0x1C }
  - { offsetInCU: 0xE664, offset: 0xE664, size: 0x8, addend: 0x0, symName: __ZNSt3__122__compressed_pair_elemINS_9allocatorI5PointEELi1ELb1EEC2B8ne180100ENS_18__default_init_tagE, symObjAddr: 0x13D0, symBinAddr: 0x100002B0C, symSize: 0x2C }
  - { offsetInCU: 0xE698, offset: 0xE698, size: 0x8, addend: 0x0, symName: __ZNSt3__19allocatorI5PointEC2B8ne180100Ev, symObjAddr: 0x13FC, symBinAddr: 0x100002B38, symSize: 0x2C }
  - { offsetInCU: 0xE6C1, offset: 0xE6C1, size: 0x8, addend: 0x0, symName: __ZNSt3__116__non_trivial_ifILb1ENS_9allocatorI5PointEEEC2B8ne180100Ev, symObjAddr: 0x1428, symBinAddr: 0x100002B64, symSize: 0x14 }
  - { offsetInCU: 0xE6EA, offset: 0xE6EA, size: 0x8, addend: 0x0, symName: __ZNSt3__16vectorI5PointNS_9allocatorIS1_EEED2B8ne180100Ev, symObjAddr: 0x143C, symBinAddr: 0x100002B78, symSize: 0x44 }
  - { offsetInCU: 0xE713, offset: 0xE713, size: 0x8, addend: 0x0, symName: __ZNSt3__16vectorI5PointNS_9allocatorIS1_EEE16__destroy_vectorC1B8ne180100ERS4_, symObjAddr: 0x1480, symBinAddr: 0x100002BBC, symSize: 0x34 }
  - { offsetInCU: 0xE74B, offset: 0xE74B, size: 0x8, addend: 0x0, symName: __ZNSt3__16vectorI5PointNS_9allocatorIS1_EEE16__destroy_vectorclB8ne180100Ev, symObjAddr: 0x14B4, symBinAddr: 0x100002BF0, symSize: 0x90 }
  - { offsetInCU: 0xE770, offset: 0xE770, size: 0x8, addend: 0x0, symName: __ZNSt3__16vectorI5PointNS_9allocatorIS1_EEE16__destroy_vectorC2B8ne180100ERS4_, symObjAddr: 0x1544, symBinAddr: 0x100002C80, symSize: 0x20 }
  - { offsetInCU: 0xE7A8, offset: 0xE7A8, size: 0x8, addend: 0x0, symName: __ZNSt3__16vectorI5PointNS_9allocatorIS1_EEE7__clearB8ne180100Ev, symObjAddr: 0x1564, symBinAddr: 0x100002CA0, symSize: 0x28 }
  - { offsetInCU: 0xE7CD, offset: 0xE7CD, size: 0x8, addend: 0x0, symName: __ZNKSt3__16vectorI5PointNS_9allocatorIS1_EEE17__annotate_deleteB8ne180100Ev, symObjAddr: 0x158C, symBinAddr: 0x100002CC8, symSize: 0x10 }
  - { offsetInCU: 0xE7F2, offset: 0xE7F2, size: 0x8, addend: 0x0, symName: __ZNSt3__116allocator_traitsINS_9allocatorI5PointEEE10deallocateB8ne180100ERS3_PS2_m, symObjAddr: 0x159C, symBinAddr: 0x100002CD8, symSize: 0x34 }
  - { offsetInCU: 0xE834, offset: 0xE834, size: 0x8, addend: 0x0, symName: __ZNSt3__16vectorI5PointNS_9allocatorIS1_EEE7__allocB8ne180100Ev, symObjAddr: 0x15D0, symBinAddr: 0x100002D0C, symSize: 0x28 }
  - { offsetInCU: 0xE859, offset: 0xE859, size: 0x8, addend: 0x0, symName: __ZNKSt3__16vectorI5PointNS_9allocatorIS1_EEE8capacityB8ne180100Ev, symObjAddr: 0x15F8, symBinAddr: 0x100002D34, symSize: 0x40 }
  - { offsetInCU: 0xE87E, offset: 0xE87E, size: 0x8, addend: 0x0, symName: __ZNSt3__16vectorI5PointNS_9allocatorIS1_EEE22__base_destruct_at_endB8ne180100EPS1_, symObjAddr: 0x1638, symBinAddr: 0x100002D74, symSize: 0x8C }
  - { offsetInCU: 0xE8C1, offset: 0xE8C1, size: 0x8, addend: 0x0, symName: __ZNSt3__116allocator_traitsINS_9allocatorI5PointEEE7destroyB8ne180100IS2_vEEvRS3_PT_, symObjAddr: 0x16C4, symBinAddr: 0x100002E00, symSize: 0x2C }
  - { offsetInCU: 0xE8FE, offset: 0xE8FE, size: 0x8, addend: 0x0, symName: __ZNSt3__19allocatorI5PointE7destroyB8ne180100EPS1_, symObjAddr: 0x1704, symBinAddr: 0x100002E40, symSize: 0x14 }
  - { offsetInCU: 0xE931, offset: 0xE931, size: 0x8, addend: 0x0, symName: __ZNSt3__19allocatorI5PointE10deallocateB8ne180100EPS1_m, symObjAddr: 0x1718, symBinAddr: 0x100002E54, symSize: 0x40 }
  - { offsetInCU: 0xE972, offset: 0xE972, size: 0x8, addend: 0x0, symName: __ZNSt3__117__compressed_pairIP5PointNS_9allocatorIS1_EEE6secondB8ne180100Ev, symObjAddr: 0x17D4, symBinAddr: 0x100002F10, symSize: 0x24 }
  - { offsetInCU: 0xE997, offset: 0xE997, size: 0x8, addend: 0x0, symName: __ZNSt3__122__compressed_pair_elemINS_9allocatorI5PointEELi1ELb1EE5__getB8ne180100Ev, symObjAddr: 0x17F8, symBinAddr: 0x100002F34, symSize: 0x14 }
  - { offsetInCU: 0xE9BC, offset: 0xE9BC, size: 0x8, addend: 0x0, symName: __ZNKSt3__16vectorI5PointNS_9allocatorIS1_EEE9__end_capB8ne180100Ev, symObjAddr: 0x180C, symBinAddr: 0x100002F48, symSize: 0x28 }
  - { offsetInCU: 0xE9E1, offset: 0xE9E1, size: 0x8, addend: 0x0, symName: __ZNKSt3__117__compressed_pairIP5PointNS_9allocatorIS1_EEE5firstB8ne180100Ev, symObjAddr: 0x1834, symBinAddr: 0x100002F70, symSize: 0x24 }
  - { offsetInCU: 0xEA06, offset: 0xEA06, size: 0x8, addend: 0x0, symName: __ZNKSt3__122__compressed_pair_elemIP5PointLi0ELb0EE5__getB8ne180100Ev, symObjAddr: 0x1858, symBinAddr: 0x100002F94, symSize: 0x14 }
  - { offsetInCU: 0xEA2B, offset: 0xEA2B, size: 0x8, addend: 0x0, symName: __ZNSt3__16vectorI5PointNS_9allocatorIS1_EEE9__end_capB8ne180100Ev, symObjAddr: 0x186C, symBinAddr: 0x100002FA8, symSize: 0x28 }
  - { offsetInCU: 0xEA50, offset: 0xEA50, size: 0x8, addend: 0x0, symName: __ZNSt3__16vectorI5PointNS_9allocatorIS1_EEE22__construct_one_at_endB8ne180100IJRdS6_EEEvDpOT_, symObjAddr: 0x1894, symBinAddr: 0x100002FD0, symSize: 0x98 }
  - { offsetInCU: 0xEAB1, offset: 0xEAB1, size: 0x8, addend: 0x0, symName: __ZNSt3__16vectorI5PointNS_9allocatorIS1_EEE24__emplace_back_slow_pathIJRdS6_EEEPS1_DpOT_, symObjAddr: 0x192C, symBinAddr: 0x100003068, symSize: 0xF0 }
  - { offsetInCU: 0xEB24, offset: 0xEB24, size: 0x8, addend: 0x0, symName: __ZNSt3__117__compressed_pairIP5PointNS_9allocatorIS1_EEE5firstB8ne180100Ev, symObjAddr: 0x1A1C, symBinAddr: 0x100003158, symSize: 0x24 }
  - { offsetInCU: 0xEB49, offset: 0xEB49, size: 0x8, addend: 0x0, symName: __ZNSt3__122__compressed_pair_elemIP5PointLi0ELb0EE5__getB8ne180100Ev, symObjAddr: 0x1A40, symBinAddr: 0x10000317C, symSize: 0x14 }
  - { offsetInCU: 0xEB87, offset: 0xEB87, size: 0x8, addend: 0x0, symName: __ZNSt3__16vectorI5PointNS_9allocatorIS1_EEE21_ConstructTransactionC1B8ne180100ERS4_m, symObjAddr: 0x1A54, symBinAddr: 0x100003190, symSize: 0x3C }
  - { offsetInCU: 0xEBCE, offset: 0xEBCE, size: 0x8, addend: 0x0, symName: __ZNSt3__116allocator_traitsINS_9allocatorI5PointEEE9constructB8ne180100IS2_JRdS6_EvEEvRS3_PT_DpOT0_, symObjAddr: 0x1A90, symBinAddr: 0x1000031CC, symSize: 0x3C }
  - { offsetInCU: 0xEC39, offset: 0xEC39, size: 0x8, addend: 0x0, symName: __ZNSt3__16vectorI5PointNS_9allocatorIS1_EEE21_ConstructTransactionD1B8ne180100Ev, symObjAddr: 0x1ACC, symBinAddr: 0x100003208, symSize: 0x2C }
  - { offsetInCU: 0xEC62, offset: 0xEC62, size: 0x8, addend: 0x0, symName: __ZNSt3__16vectorI5PointNS_9allocatorIS1_EEE21_ConstructTransactionC2B8ne180100ERS4_m, symObjAddr: 0x1AF8, symBinAddr: 0x100003234, symSize: 0x44 }
  - { offsetInCU: 0xECA9, offset: 0xECA9, size: 0x8, addend: 0x0, symName: __ZNSt3__19allocatorI5PointE9constructB8ne180100IS1_JRdS4_EEEvPT_DpOT0_, symObjAddr: 0x1B3C, symBinAddr: 0x100003278, symSize: 0x40 }
  - { offsetInCU: 0xED11, offset: 0xED11, size: 0x8, addend: 0x0, symName: __ZNSt3__16vectorI5PointNS_9allocatorIS1_EEE21_ConstructTransactionD2B8ne180100Ev, symObjAddr: 0x1B7C, symBinAddr: 0x1000032B8, symSize: 0x20 }
  - { offsetInCU: 0xED39, offset: 0xED39, size: 0x8, addend: 0x0, symName: __ZNKSt3__16vectorI5PointNS_9allocatorIS1_EEE11__recommendB8ne180100Em, symObjAddr: 0x1B9C, symBinAddr: 0x1000032D8, symSize: 0xB4 }
  - { offsetInCU: 0xED8D, offset: 0xED8D, size: 0x8, addend: 0x0, symName: __ZNSt3__114__split_bufferI5PointRNS_9allocatorIS1_EEEC1EmmS4_, symObjAddr: 0x1C50, symBinAddr: 0x10000338C, symSize: 0x44 }
  - { offsetInCU: 0xEDE2, offset: 0xEDE2, size: 0x8, addend: 0x0, symName: __ZNSt3__114__split_bufferI5PointRNS_9allocatorIS1_EEED1Ev, symObjAddr: 0x1DA4, symBinAddr: 0x1000034E0, symSize: 0x2C }
  - { offsetInCU: 0xEE0C, offset: 0xEE0C, size: 0x8, addend: 0x0, symName: __ZNKSt3__16vectorI5PointNS_9allocatorIS1_EEE8max_sizeEv, symObjAddr: 0x1DD0, symBinAddr: 0x10000350C, symSize: 0x60 }
  - { offsetInCU: 0xEE33, offset: 0xEE33, size: 0x8, addend: 0x0, symName: __ZNKSt3__16vectorI5PointNS_9allocatorIS1_EEE20__throw_length_errorB8ne180100Ev, symObjAddr: 0x1E30, symBinAddr: 0x10000356C, symSize: 0x1C }
  - { offsetInCU: 0xEE62, offset: 0xEE62, size: 0x8, addend: 0x0, symName: __ZNSt3__116allocator_traitsINS_9allocatorI5PointEEE8max_sizeB8ne180100IS3_vEEmRKS3_, symObjAddr: 0x1EA4, symBinAddr: 0x1000035E0, symSize: 0x24 }
  - { offsetInCU: 0xEE90, offset: 0xEE90, size: 0x8, addend: 0x0, symName: __ZNKSt3__16vectorI5PointNS_9allocatorIS1_EEE7__allocB8ne180100Ev, symObjAddr: 0x1EC8, symBinAddr: 0x100003604, symSize: 0x28 }
  - { offsetInCU: 0xEEB5, offset: 0xEEB5, size: 0x8, addend: 0x0, symName: __ZNSt3__114numeric_limitsIlE3maxB8ne180100Ev, symObjAddr: 0x1EF0, symBinAddr: 0x10000362C, symSize: 0x14 }
  - { offsetInCU: 0xEEDD, offset: 0xEEDD, size: 0x8, addend: 0x0, symName: __ZNKSt3__16__lessIvvEclB8ne180100ImmEEbRKT_RKT0_, symObjAddr: 0x1F58, symBinAddr: 0x100003694, symSize: 0x34 }
  - { offsetInCU: 0xEF30, offset: 0xEF30, size: 0x8, addend: 0x0, symName: __ZNKSt3__19allocatorI5PointE8max_sizeB8ne180100Ev, symObjAddr: 0x1F8C, symBinAddr: 0x1000036C8, symSize: 0x14 }
  - { offsetInCU: 0xEF55, offset: 0xEF55, size: 0x8, addend: 0x0, symName: __ZNKSt3__117__compressed_pairIP5PointNS_9allocatorIS1_EEE6secondB8ne180100Ev, symObjAddr: 0x1FA0, symBinAddr: 0x1000036DC, symSize: 0x24 }
  - { offsetInCU: 0xEF7A, offset: 0xEF7A, size: 0x8, addend: 0x0, symName: __ZNKSt3__122__compressed_pair_elemINS_9allocatorI5PointEELi1ELb1EE5__getB8ne180100Ev, symObjAddr: 0x1FC4, symBinAddr: 0x100003700, symSize: 0x14 }
  - { offsetInCU: 0xEF9F, offset: 0xEF9F, size: 0x8, addend: 0x0, symName: __ZNSt3__123__libcpp_numeric_limitsIlLb1EE3maxB8ne180100Ev, symObjAddr: 0x1FD8, symBinAddr: 0x100003714, symSize: 0x8 }
  - { offsetInCU: 0xEFB3, offset: 0xEFB3, size: 0x8, addend: 0x0, symName: __ZNSt12length_errorC1B8ne180100EPKc, symObjAddr: 0x2044, symBinAddr: 0x100003780, symSize: 0x34 }
  - { offsetInCU: 0xEFEA, offset: 0xEFEA, size: 0x8, addend: 0x0, symName: __ZNSt12length_errorC2B8ne180100EPKc, symObjAddr: 0x2078, symBinAddr: 0x1000037B4, symSize: 0x4C }
  - { offsetInCU: 0xF021, offset: 0xF021, size: 0x8, addend: 0x0, symName: __ZNSt3__114__split_bufferI5PointRNS_9allocatorIS1_EEEC2EmmS4_, symObjAddr: 0x2118, symBinAddr: 0x100003854, symSize: 0xD4 }
  - { offsetInCU: 0xF094, offset: 0xF094, size: 0x8, addend: 0x0, symName: __ZNSt3__117__compressed_pairIP5PointRNS_9allocatorIS1_EEEC1B8ne180100IDnS5_EEOT_OT0_, symObjAddr: 0x21EC, symBinAddr: 0x100003928, symSize: 0x3C }
  - { offsetInCU: 0xF0EB, offset: 0xF0EB, size: 0x8, addend: 0x0, symName: __ZNSt3__114__split_bufferI5PointRNS_9allocatorIS1_EEE7__allocB8ne180100Ev, symObjAddr: 0x2268, symBinAddr: 0x1000039A4, symSize: 0x28 }
  - { offsetInCU: 0xF110, offset: 0xF110, size: 0x8, addend: 0x0, symName: __ZNSt3__114__split_bufferI5PointRNS_9allocatorIS1_EEE9__end_capB8ne180100Ev, symObjAddr: 0x2290, symBinAddr: 0x1000039CC, symSize: 0x28 }
  - { offsetInCU: 0xF135, offset: 0xF135, size: 0x8, addend: 0x0, symName: __ZNSt3__117__compressed_pairIP5PointRNS_9allocatorIS1_EEEC2B8ne180100IDnS5_EEOT_OT0_, symObjAddr: 0x22B8, symBinAddr: 0x1000039F4, symSize: 0x48 }
  - { offsetInCU: 0xF18C, offset: 0xF18C, size: 0x8, addend: 0x0, symName: __ZNSt3__122__compressed_pair_elemIRNS_9allocatorI5PointEELi1ELb0EEC2B8ne180100IS4_vEEOT_, symObjAddr: 0x2300, symBinAddr: 0x100003A3C, symSize: 0x20 }
  - { offsetInCU: 0xF1CD, offset: 0xF1CD, size: 0x8, addend: 0x0, symName: __ZNSt3__19allocatorI5PointE8allocateB8ne180100Em, symObjAddr: 0x2320, symBinAddr: 0x100003A5C, symSize: 0x58 }
  - { offsetInCU: 0xF200, offset: 0xF200, size: 0x8, addend: 0x0, symName: __ZNSt3__117__compressed_pairIP5PointRNS_9allocatorIS1_EEE6secondB8ne180100Ev, symObjAddr: 0x23F8, symBinAddr: 0x100003B34, symSize: 0x28 }
  - { offsetInCU: 0xF225, offset: 0xF225, size: 0x8, addend: 0x0, symName: __ZNSt3__122__compressed_pair_elemIRNS_9allocatorI5PointEELi1ELb0EE5__getB8ne180100Ev, symObjAddr: 0x2420, symBinAddr: 0x100003B5C, symSize: 0x18 }
  - { offsetInCU: 0xF24A, offset: 0xF24A, size: 0x8, addend: 0x0, symName: __ZNSt3__117__compressed_pairIP5PointRNS_9allocatorIS1_EEE5firstB8ne180100Ev, symObjAddr: 0x2438, symBinAddr: 0x100003B74, symSize: 0x24 }
  - { offsetInCU: 0xF26F, offset: 0xF26F, size: 0x8, addend: 0x0, symName: __ZNSt3__116reverse_iteratorIP5PointEC1B8ne180100ES2_, symObjAddr: 0x24D4, symBinAddr: 0x100003C10, symSize: 0x34 }
  - { offsetInCU: 0xF2A6, offset: 0xF2A6, size: 0x8, addend: 0x0, symName: __ZNKSt3__116reverse_iteratorIP5PointE4baseB8ne180100Ev, symObjAddr: 0x2508, symBinAddr: 0x100003C44, symSize: 0x18 }
  - { offsetInCU: 0xF2CB, offset: 0xF2CB, size: 0x8, addend: 0x0, symName: __ZNKSt3__16vectorI5PointNS_9allocatorIS1_EEE14__annotate_newB8ne180100Em, symObjAddr: 0x255C, symBinAddr: 0x100003C98, symSize: 0x14 }
  - { offsetInCU: 0xF322, offset: 0xF322, size: 0x8, addend: 0x0, symName: __ZNKSt3__111__move_loopINS_17_ClassicAlgPolicyEEclB8ne180100INS_16reverse_iteratorIP5PointEES7_S7_EENS_4pairIT_T1_EES9_T0_SA_, symObjAddr: 0x2860, symBinAddr: 0x100003F9C, symSize: 0xA0 }
  - { offsetInCU: 0xF391, offset: 0xF391, size: 0x8, addend: 0x0, symName: __ZNSt3__18_IterOpsINS_17_ClassicAlgPolicyEE11__iter_moveB8ne180100IRNS_16reverse_iteratorIP5PointEELi0EEEDTclsr3stdE4movedeclsr3stdE7declvalIRT_EEEEOS9_, symObjAddr: 0x2A94, symBinAddr: 0x1000041D0, symSize: 0x28 }
  - { offsetInCU: 0xF3C3, offset: 0xF3C3, size: 0x8, addend: 0x0, symName: __ZNKSt3__116reverse_iteratorIP5PointEdeB8ne180100Ev, symObjAddr: 0x2ABC, symBinAddr: 0x1000041F8, symSize: 0x28 }
  - { offsetInCU: 0xF3F6, offset: 0xF3F6, size: 0x8, addend: 0x0, symName: __ZNSt3__116reverse_iteratorIP5PointEppB8ne180100Ev, symObjAddr: 0x2AE4, symBinAddr: 0x100004220, symSize: 0x20 }
  - { offsetInCU: 0xF41B, offset: 0xF41B, size: 0x8, addend: 0x0, symName: __ZNSt3__18_IterOpsINS_17_ClassicAlgPolicyEE25__validate_iter_referenceB8ne180100IRNS_16reverse_iteratorIP5PointEEEEvv, symObjAddr: 0x2B04, symBinAddr: 0x100004240, symSize: 0x4 }
  - { offsetInCU: 0xF439, offset: 0xF439, size: 0x8, addend: 0x0, symName: __ZNSt3__118__unwrap_iter_implINS_16reverse_iteratorIP5PointEELb0EE8__unwrapB8ne180100ES4_, symObjAddr: 0x2B08, symBinAddr: 0x100004244, symSize: 0x24 }
  - { offsetInCU: 0xF461, offset: 0xF461, size: 0x8, addend: 0x0, symName: __ZNSt3__14pairINS_16reverse_iteratorIP5PointEES4_EC1B8ne180100IS4_S4_Li0EEEOT_OT0_, symObjAddr: 0x2B2C, symBinAddr: 0x100004268, symSize: 0x3C }
  - { offsetInCU: 0xF4BE, offset: 0xF4BE, size: 0x8, addend: 0x0, symName: __ZNSt3__14pairINS_16reverse_iteratorIP5PointEES4_EC2B8ne180100IS4_S4_Li0EEEOT_OT0_, symObjAddr: 0x2B68, symBinAddr: 0x1000042A4, symSize: 0x34 }
  - { offsetInCU: 0xF51B, offset: 0xF51B, size: 0x8, addend: 0x0, symName: __ZNSt3__118__unwrap_iter_implINS_16reverse_iteratorIP5PointEELb0EE8__rewrapB8ne180100ES4_S4_, symObjAddr: 0x2B9C, symBinAddr: 0x1000042D8, symSize: 0x2C }
  - { offsetInCU: 0xF549, offset: 0xF549, size: 0x8, addend: 0x0, symName: __ZNSt3__116reverse_iteratorIP5PointEC2B8ne180100ES2_, symObjAddr: 0x2BC8, symBinAddr: 0x100004304, symSize: 0x28 }
  - { offsetInCU: 0xF580, offset: 0xF580, size: 0x8, addend: 0x0, symName: __ZNSt3__114__split_bufferI5PointRNS_9allocatorIS1_EEED2Ev, symObjAddr: 0x2BF0, symBinAddr: 0x10000432C, symSize: 0x8C }
  - { offsetInCU: 0xF5AB, offset: 0xF5AB, size: 0x8, addend: 0x0, symName: __ZNSt3__114__split_bufferI5PointRNS_9allocatorIS1_EEE5clearB8ne180100Ev, symObjAddr: 0x2C7C, symBinAddr: 0x1000043B8, symSize: 0x28 }
  - { offsetInCU: 0xF5D0, offset: 0xF5D0, size: 0x8, addend: 0x0, symName: __ZNKSt3__114__split_bufferI5PointRNS_9allocatorIS1_EEE8capacityB8ne180100Ev, symObjAddr: 0x2CA4, symBinAddr: 0x1000043E0, symSize: 0x40 }
  - { offsetInCU: 0xF5F5, offset: 0xF5F5, size: 0x8, addend: 0x0, symName: __ZNSt3__114__split_bufferI5PointRNS_9allocatorIS1_EEE17__destruct_at_endB8ne180100EPS1_, symObjAddr: 0x2CE4, symBinAddr: 0x100004420, symSize: 0x2C }
  - { offsetInCU: 0xF627, offset: 0xF627, size: 0x8, addend: 0x0, symName: __ZNSt3__114__split_bufferI5PointRNS_9allocatorIS1_EEE17__destruct_at_endB8ne180100EPS1_NS_17integral_constantIbLb0EEE, symObjAddr: 0x2D10, symBinAddr: 0x10000444C, symSize: 0x80 }
  - { offsetInCU: 0xF667, offset: 0xF667, size: 0x8, addend: 0x0, symName: __ZNKSt3__114__split_bufferI5PointRNS_9allocatorIS1_EEE9__end_capB8ne180100Ev, symObjAddr: 0x2D90, symBinAddr: 0x1000044CC, symSize: 0x28 }
  - { offsetInCU: 0xF68C, offset: 0xF68C, size: 0x8, addend: 0x0, symName: __ZNKSt3__117__compressed_pairIP5PointRNS_9allocatorIS1_EEE5firstB8ne180100Ev, symObjAddr: 0x2DB8, symBinAddr: 0x1000044F4, symSize: 0x24 }
  - { offsetInCU: 0xF6B1, offset: 0xF6B1, size: 0x8, addend: 0x0, symName: __ZNSt3__16vectorI5PointNS_9allocatorIS1_EEEC2B8ne180100ESt16initializer_listIS1_E, symObjAddr: 0x2E08, symBinAddr: 0x100004544, symSize: 0x120 }
  - { offsetInCU: 0xF700, offset: 0xF700, size: 0x8, addend: 0x0, symName: __ZNKSt16initializer_listI5PointE4sizeB8ne180100Ev, symObjAddr: 0x2F68, symBinAddr: 0x1000046A4, symSize: 0x18 }
  - { offsetInCU: 0xF725, offset: 0xF725, size: 0x8, addend: 0x0, symName: __ZNSt3__16vectorI5PointNS_9allocatorIS1_EEE11__vallocateB8ne180100Em, symObjAddr: 0x2F80, symBinAddr: 0x1000046BC, symSize: 0xAC }
  - { offsetInCU: 0xF767, offset: 0xF767, size: 0x8, addend: 0x0, symName: __ZNSt3__16vectorI5PointNS_9allocatorIS1_EEE18__construct_at_endIPKS1_S7_EEvT_T0_m, symObjAddr: 0x302C, symBinAddr: 0x100004768, symSize: 0x8C }
  - { offsetInCU: 0xF7DC, offset: 0xF7DC, size: 0x8, addend: 0x0, symName: __ZNKSt16initializer_listI5PointE5beginB8ne180100Ev, symObjAddr: 0x30B8, symBinAddr: 0x1000047F4, symSize: 0x18 }
  - { offsetInCU: 0xF801, offset: 0xF801, size: 0x8, addend: 0x0, symName: __ZNKSt16initializer_listI5PointE3endB8ne180100Ev, symObjAddr: 0x30D0, symBinAddr: 0x10000480C, symSize: 0x20 }
  - { offsetInCU: 0xF826, offset: 0xF826, size: 0x8, addend: 0x0, symName: __ZNSt3__128__exception_guard_exceptionsINS_6vectorI5PointNS_9allocatorIS2_EEE16__destroy_vectorEE10__completeB8ne180100Ev, symObjAddr: 0x30F0, symBinAddr: 0x10000482C, symSize: 0x1C }
  - { offsetInCU: 0xF84B, offset: 0xF84B, size: 0x8, addend: 0x0, symName: __ZNSt3__128__exception_guard_exceptionsINS_6vectorI5PointNS_9allocatorIS2_EEE16__destroy_vectorEED1B8ne180100Ev, symObjAddr: 0x310C, symBinAddr: 0x100004848, symSize: 0x2C }
  - { offsetInCU: 0xF874, offset: 0xF874, size: 0x8, addend: 0x0, symName: __ZNSt3__128__exception_guard_exceptionsINS_6vectorI5PointNS_9allocatorIS2_EEE16__destroy_vectorEEC1B8ne180100ES6_, symObjAddr: 0x3138, symBinAddr: 0x100004874, symSize: 0x34 }
  - { offsetInCU: 0xF8AB, offset: 0xF8AB, size: 0x8, addend: 0x0, symName: __ZNSt3__128__exception_guard_exceptionsINS_6vectorI5PointNS_9allocatorIS2_EEE16__destroy_vectorEEC2B8ne180100ES6_, symObjAddr: 0x316C, symBinAddr: 0x1000048A8, symSize: 0x24 }
  - { offsetInCU: 0xF900, offset: 0xF900, size: 0x8, addend: 0x0, symName: __ZNSt3__14pairIPK5PointS3_EC1B8ne180100IS3_S3_Li0EEEOT_OT0_, symObjAddr: 0x3364, symBinAddr: 0x100004AA0, symSize: 0x3C }
  - { offsetInCU: 0xF95D, offset: 0xF95D, size: 0x8, addend: 0x0, symName: __ZNSt3__14pairIPK5PointS3_EC2B8ne180100IS3_S3_Li0EEEOT_OT0_, symObjAddr: 0x33A0, symBinAddr: 0x100004ADC, symSize: 0x34 }
  - { offsetInCU: 0xF9BA, offset: 0xF9BA, size: 0x8, addend: 0x0, symName: __ZNSt3__118__unwrap_iter_implIPK5PointLb1EE8__unwrapB8ne180100ES3_, symObjAddr: 0x33D4, symBinAddr: 0x100004B10, symSize: 0x24 }
  - { offsetInCU: 0xFA00, offset: 0xFA00, size: 0x8, addend: 0x0, symName: __ZNKSt3__114__copy_trivialclB8ne180100IK5PointS2_Li0EEENS_4pairIPT_PT0_EES6_S6_S8_, symObjAddr: 0x3588, symBinAddr: 0x100004CC4, symSize: 0x48 }
  - { offsetInCU: 0xFA71, offset: 0xFA71, size: 0x8, addend: 0x0, symName: __ZNSt3__14pairIPK5PointPS1_EC1B8ne180100IRS3_S4_Li0EEEOT_OT0_, symObjAddr: 0x3750, symBinAddr: 0x100004E8C, symSize: 0x3C }
  - { offsetInCU: 0xFACE, offset: 0xFACE, size: 0x8, addend: 0x0, symName: __ZNSt3__14pairIPK5PointPS1_EC2B8ne180100IRS3_S4_Li0EEEOT_OT0_, symObjAddr: 0x378C, symBinAddr: 0x100004EC8, symSize: 0x34 }
  - { offsetInCU: 0xFB2B, offset: 0xFB2B, size: 0x8, addend: 0x0, symName: __ZNSt3__14pairIPK5PointPS1_EC1B8ne180100IS3_S4_Li0EEEOT_OT0_, symObjAddr: 0x37C0, symBinAddr: 0x100004EFC, symSize: 0x3C }
  - { offsetInCU: 0xFB88, offset: 0xFB88, size: 0x8, addend: 0x0, symName: __ZNSt3__14pairIPK5PointPS1_EC2B8ne180100IS3_S4_Li0EEEOT_OT0_, symObjAddr: 0x37FC, symBinAddr: 0x100004F38, symSize: 0x34 }
  - { offsetInCU: 0xFBE5, offset: 0xFBE5, size: 0x8, addend: 0x0, symName: __ZNSt3__118__unwrap_iter_implIPK5PointLb1EE8__rewrapB8ne180100ES3_S3_, symObjAddr: 0x386C, symBinAddr: 0x100004FA8, symSize: 0x50 }
  - { offsetInCU: 0xFC16, offset: 0xFC16, size: 0x8, addend: 0x0, symName: __ZNSt3__118__unwrap_iter_implIP5PointLb1EE8__unwrapB8ne180100ES2_, symObjAddr: 0x38BC, symBinAddr: 0x100004FF8, symSize: 0x24 }
  - { offsetInCU: 0xFC39, offset: 0xFC39, size: 0x8, addend: 0x0, symName: __ZNSt3__118__unwrap_iter_implIP5PointLb1EE8__rewrapB8ne180100ES2_S2_, symObjAddr: 0x38E0, symBinAddr: 0x10000501C, symSize: 0x50 }
  - { offsetInCU: 0xFC6A, offset: 0xFC6A, size: 0x8, addend: 0x0, symName: __ZNSt3__128__exception_guard_exceptionsINS_6vectorI5PointNS_9allocatorIS2_EEE16__destroy_vectorEED2B8ne180100Ev, symObjAddr: 0x3930, symBinAddr: 0x10000506C, symSize: 0x48 }
  - { offsetInCU: 0xFC98, offset: 0xFC98, size: 0x8, addend: 0x0, symName: __ZNSt3__16vectorI5PointNS_9allocatorIS1_EEE22__construct_one_at_endB8ne180100IJS1_EEEvDpOT_, symObjAddr: 0x3978, symBinAddr: 0x1000050B4, symSize: 0x90 }
  - { offsetInCU: 0xFCE5, offset: 0xFCE5, size: 0x8, addend: 0x0, symName: __ZNSt3__16vectorI5PointNS_9allocatorIS1_EEE21__push_back_slow_pathIS1_EEPS1_OT_, symObjAddr: 0x3A08, symBinAddr: 0x100005144, symSize: 0xE8 }
  - { offsetInCU: 0xFD42, offset: 0xFD42, size: 0x8, addend: 0x0, symName: __ZNSt3__116allocator_traitsINS_9allocatorI5PointEEE9constructB8ne180100IS2_JS2_EvEEvRS3_PT_DpOT0_, symObjAddr: 0x3AF0, symBinAddr: 0x10000522C, symSize: 0x34 }
  - { offsetInCU: 0xFD99, offset: 0xFD99, size: 0x8, addend: 0x0, symName: __ZNSt3__19allocatorI5PointE9constructB8ne180100IS1_JS1_EEEvPT_DpOT0_, symObjAddr: 0x3B24, symBinAddr: 0x100005260, symSize: 0x28 }
  - { offsetInCU: 0xFDEE, offset: 0xFDEE, size: 0x8, addend: 0x0, symName: __ZNSt3__19basic_iosIcNS_11char_traitsIcEEEC2B8ne180100Ev, symObjAddr: 0x3B4C, symBinAddr: 0x100005288, symSize: 0x44 }
  - { offsetInCU: 0xFE17, offset: 0xFE17, size: 0x8, addend: 0x0, symName: __ZNSt3__113basic_ostreamIcNS_11char_traitsIcEEEC2B8ne180100EPNS_15basic_streambufIcS2_EE, symObjAddr: 0x3B90, symBinAddr: 0x1000052CC, symSize: 0x60 }
  - { offsetInCU: 0xFE59, offset: 0xFE59, size: 0x8, addend: 0x0, symName: __ZNSt3__113basic_filebufIcNS_11char_traitsIcEEE4openERKNS_12basic_stringIcS2_NS_9allocatorIcEEEEj, symObjAddr: 0x3BF0, symBinAddr: 0x10000532C, symSize: 0x44 }
  - { offsetInCU: 0xFE9E, offset: 0xFE9E, size: 0x8, addend: 0x0, symName: __ZNSt3__19basic_iosIcNS_11char_traitsIcEEE8setstateB8ne180100Ej, symObjAddr: 0x3C34, symBinAddr: 0x100005370, symSize: 0x2C }
  - { offsetInCU: 0xFED2, offset: 0xFED2, size: 0x8, addend: 0x0, symName: __ZNSt3__18ios_baseC2B8ne180100Ev, symObjAddr: 0x3C60, symBinAddr: 0x10000539C, symSize: 0x24 }
  - { offsetInCU: 0xFEFA, offset: 0xFEFA, size: 0x8, addend: 0x0, symName: __ZNSt3__19basic_iosIcNS_11char_traitsIcEEE4initB8ne180100EPNS_15basic_streambufIcS2_EE, symObjAddr: 0x3C84, symBinAddr: 0x1000053C0, symSize: 0x44 }
  - { offsetInCU: 0xFF30, offset: 0xFF30, size: 0x8, addend: 0x0, symName: __ZNSt3__111char_traitsIcE3eofB8ne180100Ev, symObjAddr: 0x3CC8, symBinAddr: 0x100005404, symSize: 0x8 }
  - { offsetInCU: 0xFF44, offset: 0xFF44, size: 0x8, addend: 0x0, symName: __ZNKSt3__112basic_stringIcNS_11char_traitsIcEENS_9allocatorIcEEE5c_strB8ne180100Ev, symObjAddr: 0x3CD0, symBinAddr: 0x10000540C, symSize: 0x24 }
  - { offsetInCU: 0xFF69, offset: 0xFF69, size: 0x8, addend: 0x0, symName: __ZNKSt3__112basic_stringIcNS_11char_traitsIcEENS_9allocatorIcEEE4dataB8ne180100Ev, symObjAddr: 0x3CF4, symBinAddr: 0x100005430, symSize: 0x28 }
  - { offsetInCU: 0xFF8E, offset: 0xFF8E, size: 0x8, addend: 0x0, symName: __ZNKSt3__112basic_stringIcNS_11char_traitsIcEENS_9allocatorIcEEE13__get_pointerB8ne180100Ev, symObjAddr: 0x3D30, symBinAddr: 0x10000546C, symSize: 0x54 }
  - { offsetInCU: 0xFFB3, offset: 0xFFB3, size: 0x8, addend: 0x0, symName: __ZNKSt3__112basic_stringIcNS_11char_traitsIcEENS_9allocatorIcEEE9__is_longB8ne180100Ev, symObjAddr: 0x3D84, symBinAddr: 0x1000054C0, symSize: 0x38 }
  - { offsetInCU: 0xFFD8, offset: 0xFFD8, size: 0x8, addend: 0x0, symName: __ZNKSt3__112basic_stringIcNS_11char_traitsIcEENS_9allocatorIcEEE18__get_long_pointerB8ne180100Ev, symObjAddr: 0x3DBC, symBinAddr: 0x1000054F8, symSize: 0x28 }
  - { offsetInCU: 0xFFFD, offset: 0xFFFD, size: 0x8, addend: 0x0, symName: __ZNKSt3__112basic_stringIcNS_11char_traitsIcEENS_9allocatorIcEEE19__get_short_pointerB8ne180100Ev, symObjAddr: 0x3DE4, symBinAddr: 0x100005520, symSize: 0x28 }
  - { offsetInCU: 0x10022, offset: 0x10022, size: 0x8, addend: 0x0, symName: __ZNKSt3__117__compressed_pairINS_12basic_stringIcNS_11char_traitsIcEENS_9allocatorIcEEE5__repES5_E5firstB8ne180100Ev, symObjAddr: 0x3E0C, symBinAddr: 0x100005548, symSize: 0x24 }
  - { offsetInCU: 0x10047, offset: 0x10047, size: 0x8, addend: 0x0, symName: __ZNKSt3__122__compressed_pair_elemINS_12basic_stringIcNS_11char_traitsIcEENS_9allocatorIcEEE5__repELi0ELb0EE5__getB8ne180100Ev, symObjAddr: 0x3E30, symBinAddr: 0x10000556C, symSize: 0x14 }
  - { offsetInCU: 0x1006C, offset: 0x1006C, size: 0x8, addend: 0x0, symName: __ZNSt3__114pointer_traitsIPKcE10pointer_toB8ne180100ERS1_, symObjAddr: 0x3E44, symBinAddr: 0x100005580, symSize: 0x14 }
  - { offsetInCU: 0x1008E, offset: 0x1008E, size: 0x8, addend: 0x0, symName: __ZNSt3__18ios_base8setstateB8ne180100Ej, symObjAddr: 0x3E58, symBinAddr: 0x100005594, symSize: 0x34 }
  - { offsetInCU: 0x100C4, offset: 0x100C4, size: 0x8, addend: 0x0, symName: __ZNKSt3__113basic_filebufIcNS_11char_traitsIcEEE7is_openEv, symObjAddr: 0x3E8C, symBinAddr: 0x1000055C8, symSize: 0x24 }
  - { offsetInCU: 0x100EB, offset: 0x100EB, size: 0x8, addend: 0x0, symName: __ZNKSt3__16vectorI5PointNS_9allocatorIS1_EEE11__make_iterB8ne180100EPKS1_, symObjAddr: 0x3EB0, symBinAddr: 0x1000055EC, symSize: 0x30 }
  - { offsetInCU: 0x1011F, offset: 0x1011F, size: 0x8, addend: 0x0, symName: __ZNSt3__111__wrap_iterIPK5PointEC1B8ne180100ES3_, symObjAddr: 0x3EE0, symBinAddr: 0x10000561C, symSize: 0x34 }
  - { offsetInCU: 0x10156, offset: 0x10156, size: 0x8, addend: 0x0, symName: __ZNSt3__111__wrap_iterIPK5PointEC2B8ne180100ES3_, symObjAddr: 0x3F14, symBinAddr: 0x100005650, symSize: 0x20 }
  - { offsetInCU: 0x1018D, offset: 0x1018D, size: 0x8, addend: 0x0, symName: __ZNSt3__111char_traitsIcE6lengthB8ne180100EPKc, symObjAddr: 0x4120, symBinAddr: 0x10000585C, symSize: 0x34 }
  - { offsetInCU: 0x101CE, offset: 0x101CE, size: 0x8, addend: 0x0, symName: __ZNKSt3__113basic_ostreamIcNS_11char_traitsIcEEE6sentrycvbB8ne180100Ev, symObjAddr: 0x4154, symBinAddr: 0x100005890, symSize: 0x1C }
  - { offsetInCU: 0x101F3, offset: 0x101F3, size: 0x8, addend: 0x0, symName: __ZNSt3__119ostreambuf_iteratorIcNS_11char_traitsIcEEEC1B8ne180100ERNS_13basic_ostreamIcS2_EE, symObjAddr: 0x43B0, symBinAddr: 0x100005AEC, symSize: 0x34 }
  - { offsetInCU: 0x1022A, offset: 0x1022A, size: 0x8, addend: 0x0, symName: __ZNKSt3__18ios_base5flagsB8ne180100Ev, symObjAddr: 0x43E4, symBinAddr: 0x100005B20, symSize: 0x18 }
  - { offsetInCU: 0x10250, offset: 0x10250, size: 0x8, addend: 0x0, symName: __ZNKSt3__19basic_iosIcNS_11char_traitsIcEEE4fillB8ne180100Ev, symObjAddr: 0x43FC, symBinAddr: 0x100005B38, symSize: 0x64 }
  - { offsetInCU: 0x10277, offset: 0x10277, size: 0x8, addend: 0x0, symName: __ZNKSt3__119ostreambuf_iteratorIcNS_11char_traitsIcEEE6failedB8ne180100Ev, symObjAddr: 0x4460, symBinAddr: 0x100005B9C, symSize: 0x24 }
  - { offsetInCU: 0x1029C, offset: 0x1029C, size: 0x8, addend: 0x0, symName: __ZNKSt3__18ios_base5widthB8ne180100Ev, symObjAddr: 0x4484, symBinAddr: 0x100005BC0, symSize: 0x18 }
  - { offsetInCU: 0x102C3, offset: 0x102C3, size: 0x8, addend: 0x0, symName: __ZNSt3__115basic_streambufIcNS_11char_traitsIcEEE5sputnB8ne180100EPKcl, symObjAddr: 0x449C, symBinAddr: 0x100005BD8, symSize: 0x3C }
  - { offsetInCU: 0x10304, offset: 0x10304, size: 0x8, addend: 0x0, symName: __ZNSt3__112basic_stringIcNS_11char_traitsIcEENS_9allocatorIcEEEC1B8ne180100Emc, symObjAddr: 0x44D8, symBinAddr: 0x100005C14, symSize: 0x3C }
  - { offsetInCU: 0x1034B, offset: 0x1034B, size: 0x8, addend: 0x0, symName: __ZNSt3__18ios_base5widthB8ne180100El, symObjAddr: 0x4514, symBinAddr: 0x100005C50, symSize: 0x2C }
  - { offsetInCU: 0x10390, offset: 0x10390, size: 0x8, addend: 0x0, symName: __ZNSt3__112basic_stringIcNS_11char_traitsIcEENS_9allocatorIcEEEC2B8ne180100Emc, symObjAddr: 0x4540, symBinAddr: 0x100005C7C, symSize: 0x4C }
  - { offsetInCU: 0x103D7, offset: 0x103D7, size: 0x8, addend: 0x0, symName: __ZNSt3__117__compressed_pairINS_12basic_stringIcNS_11char_traitsIcEENS_9allocatorIcEEE5__repES5_EC1B8ne180100INS_18__default_init_tagESA_EEOT_OT0_, symObjAddr: 0x458C, symBinAddr: 0x100005CC8, symSize: 0x3C }
  - { offsetInCU: 0x1042E, offset: 0x1042E, size: 0x8, addend: 0x0, symName: __ZNSt3__117__compressed_pairINS_12basic_stringIcNS_11char_traitsIcEENS_9allocatorIcEEE5__repES5_EC2B8ne180100INS_18__default_init_tagESA_EEOT_OT0_, symObjAddr: 0x45C8, symBinAddr: 0x100005D04, symSize: 0x3C }
  - { offsetInCU: 0x10485, offset: 0x10485, size: 0x8, addend: 0x0, symName: __ZNSt3__122__compressed_pair_elemINS_12basic_stringIcNS_11char_traitsIcEENS_9allocatorIcEEE5__repELi0ELb0EEC2B8ne180100ENS_18__default_init_tagE, symObjAddr: 0x4604, symBinAddr: 0x100005D40, symSize: 0x14 }
  - { offsetInCU: 0x104B9, offset: 0x104B9, size: 0x8, addend: 0x0, symName: __ZNSt3__122__compressed_pair_elemINS_9allocatorIcEELi1ELb1EEC2B8ne180100ENS_18__default_init_tagE, symObjAddr: 0x4618, symBinAddr: 0x100005D54, symSize: 0x2C }
  - { offsetInCU: 0x104ED, offset: 0x104ED, size: 0x8, addend: 0x0, symName: __ZNSt3__19allocatorIcEC2B8ne180100Ev, symObjAddr: 0x4644, symBinAddr: 0x100005D80, symSize: 0x2C }
  - { offsetInCU: 0x10516, offset: 0x10516, size: 0x8, addend: 0x0, symName: __ZNSt3__116__non_trivial_ifILb1ENS_9allocatorIcEEEC2B8ne180100Ev, symObjAddr: 0x4670, symBinAddr: 0x100005DAC, symSize: 0x14 }
  - { offsetInCU: 0x1053F, offset: 0x1053F, size: 0x8, addend: 0x0, symName: __ZNSt3__119ostreambuf_iteratorIcNS_11char_traitsIcEEEC2B8ne180100ERNS_13basic_ostreamIcS2_EE, symObjAddr: 0x4684, symBinAddr: 0x100005DC0, symSize: 0x54 }
  - { offsetInCU: 0x10575, offset: 0x10575, size: 0x8, addend: 0x0, symName: __ZNKSt3__19basic_iosIcNS_11char_traitsIcEEE5rdbufB8ne180100Ev, symObjAddr: 0x46D8, symBinAddr: 0x100005E14, symSize: 0x24 }
  - { offsetInCU: 0x1059C, offset: 0x1059C, size: 0x8, addend: 0x0, symName: __ZNKSt3__18ios_base5rdbufB8ne180100Ev, symObjAddr: 0x46FC, symBinAddr: 0x100005E38, symSize: 0x18 }
  - { offsetInCU: 0x105C1, offset: 0x105C1, size: 0x8, addend: 0x0, symName: __ZNSt3__111char_traitsIcE11eq_int_typeB8ne180100Eii, symObjAddr: 0x4714, symBinAddr: 0x100005E50, symSize: 0x28 }
  - { offsetInCU: 0x105F3, offset: 0x105F3, size: 0x8, addend: 0x0, symName: __ZNKSt3__19basic_iosIcNS_11char_traitsIcEEE5widenB8ne180100Ec, symObjAddr: 0x473C, symBinAddr: 0x100005E78, symSize: 0x84 }
  - { offsetInCU: 0x1065B, offset: 0x1065B, size: 0x8, addend: 0x0, symName: __ZNKSt3__15ctypeIcE5widenB8ne180100Ec, symObjAddr: 0x47EC, symBinAddr: 0x100005F28, symSize: 0x38 }
  - { offsetInCU: 0x1068F, offset: 0x1068F, size: 0x8, addend: 0x0, symName: __ZNKSt3__112basic_stringIcNS_11char_traitsIcEENS_9allocatorIcEEE4sizeB8ne180100Ev, symObjAddr: 0x4848, symBinAddr: 0x100005F84, symSize: 0x54 }
  - { offsetInCU: 0x106B4, offset: 0x106B4, size: 0x8, addend: 0x0, symName: __ZNKSt3__112basic_stringIcNS_11char_traitsIcEENS_9allocatorIcEEE15__get_long_sizeB8ne180100Ev, symObjAddr: 0x489C, symBinAddr: 0x100005FD8, symSize: 0x28 }
  - { offsetInCU: 0x106D9, offset: 0x106D9, size: 0x8, addend: 0x0, symName: __ZNKSt3__112basic_stringIcNS_11char_traitsIcEENS_9allocatorIcEEE16__get_short_sizeB8ne180100Ev, symObjAddr: 0x48C4, symBinAddr: 0x100006000, symSize: 0x34 }
  - { offsetInCU: 0x106FE, offset: 0x106FE, size: 0x8, addend: 0x0, symName: __ZNSt3__16vectorIiNS_9allocatorIiEEEC2B8ne180100ESt16initializer_listIiE, symObjAddr: 0x48F8, symBinAddr: 0x100006034, symSize: 0x120 }
  - { offsetInCU: 0x1074D, offset: 0x1074D, size: 0x8, addend: 0x0, symName: __ZNSt3__117__compressed_pairIPiNS_9allocatorIiEEEC1B8ne180100IDnNS_18__default_init_tagEEEOT_OT0_, symObjAddr: 0x4A18, symBinAddr: 0x100006154, symSize: 0x3C }
  - { offsetInCU: 0x107A4, offset: 0x107A4, size: 0x8, addend: 0x0, symName: __ZNSt3__16vectorIiNS_9allocatorIiEEE16__destroy_vectorC1B8ne180100ERS3_, symObjAddr: 0x4A94, symBinAddr: 0x1000061D0, symSize: 0x34 }
  - { offsetInCU: 0x107DC, offset: 0x107DC, size: 0x8, addend: 0x0, symName: __ZNKSt16initializer_listIiE4sizeB8ne180100Ev, symObjAddr: 0x4AC8, symBinAddr: 0x100006204, symSize: 0x18 }
  - { offsetInCU: 0x10801, offset: 0x10801, size: 0x8, addend: 0x0, symName: __ZNSt3__16vectorIiNS_9allocatorIiEEE11__vallocateB8ne180100Em, symObjAddr: 0x4AE0, symBinAddr: 0x10000621C, symSize: 0xAC }
  - { offsetInCU: 0x10843, offset: 0x10843, size: 0x8, addend: 0x0, symName: __ZNSt3__16vectorIiNS_9allocatorIiEEE18__construct_at_endIPKiS6_EEvT_T0_m, symObjAddr: 0x4B8C, symBinAddr: 0x1000062C8, symSize: 0x8C }
  - { offsetInCU: 0x108B8, offset: 0x108B8, size: 0x8, addend: 0x0, symName: __ZNKSt16initializer_listIiE5beginB8ne180100Ev, symObjAddr: 0x4C18, symBinAddr: 0x100006354, symSize: 0x18 }
  - { offsetInCU: 0x108DD, offset: 0x108DD, size: 0x8, addend: 0x0, symName: __ZNKSt16initializer_listIiE3endB8ne180100Ev, symObjAddr: 0x4C30, symBinAddr: 0x10000636C, symSize: 0x20 }
  - { offsetInCU: 0x10902, offset: 0x10902, size: 0x8, addend: 0x0, symName: __ZNSt3__128__exception_guard_exceptionsINS_6vectorIiNS_9allocatorIiEEE16__destroy_vectorEE10__completeB8ne180100Ev, symObjAddr: 0x4C50, symBinAddr: 0x10000638C, symSize: 0x1C }
  - { offsetInCU: 0x10927, offset: 0x10927, size: 0x8, addend: 0x0, symName: __ZNSt3__128__exception_guard_exceptionsINS_6vectorIiNS_9allocatorIiEEE16__destroy_vectorEED1B8ne180100Ev, symObjAddr: 0x4C6C, symBinAddr: 0x1000063A8, symSize: 0x2C }
  - { offsetInCU: 0x10950, offset: 0x10950, size: 0x8, addend: 0x0, symName: __ZNSt3__117__compressed_pairIPiNS_9allocatorIiEEEC2B8ne180100IDnNS_18__default_init_tagEEEOT_OT0_, symObjAddr: 0x4C98, symBinAddr: 0x1000063D4, symSize: 0x40 }
  - { offsetInCU: 0x109A7, offset: 0x109A7, size: 0x8, addend: 0x0, symName: __ZNSt3__122__compressed_pair_elemIPiLi0ELb0EEC2B8ne180100IDnvEEOT_, symObjAddr: 0x4CD8, symBinAddr: 0x100006414, symSize: 0x1C }
  - { offsetInCU: 0x109E8, offset: 0x109E8, size: 0x8, addend: 0x0, symName: __ZNSt3__122__compressed_pair_elemINS_9allocatorIiEELi1ELb1EEC2B8ne180100ENS_18__default_init_tagE, symObjAddr: 0x4CF4, symBinAddr: 0x100006430, symSize: 0x2C }
  - { offsetInCU: 0x10A1C, offset: 0x10A1C, size: 0x8, addend: 0x0, symName: __ZNSt3__19allocatorIiEC2B8ne180100Ev, symObjAddr: 0x4D20, symBinAddr: 0x10000645C, symSize: 0x2C }
  - { offsetInCU: 0x10A45, offset: 0x10A45, size: 0x8, addend: 0x0, symName: __ZNSt3__116__non_trivial_ifILb1ENS_9allocatorIiEEEC2B8ne180100Ev, symObjAddr: 0x4D4C, symBinAddr: 0x100006488, symSize: 0x14 }
  - { offsetInCU: 0x10A6E, offset: 0x10A6E, size: 0x8, addend: 0x0, symName: __ZNSt3__128__exception_guard_exceptionsINS_6vectorIiNS_9allocatorIiEEE16__destroy_vectorEEC1B8ne180100ES5_, symObjAddr: 0x4D60, symBinAddr: 0x10000649C, symSize: 0x34 }
  - { offsetInCU: 0x10AA5, offset: 0x10AA5, size: 0x8, addend: 0x0, symName: __ZNSt3__128__exception_guard_exceptionsINS_6vectorIiNS_9allocatorIiEEE16__destroy_vectorEEC2B8ne180100ES5_, symObjAddr: 0x4D94, symBinAddr: 0x1000064D0, symSize: 0x24 }
  - { offsetInCU: 0x10ADC, offset: 0x10ADC, size: 0x8, addend: 0x0, symName: __ZNSt3__16vectorIiNS_9allocatorIiEEE16__destroy_vectorC2B8ne180100ERS3_, symObjAddr: 0x4DB8, symBinAddr: 0x1000064F4, symSize: 0x20 }
  - { offsetInCU: 0x10B13, offset: 0x10B13, size: 0x8, addend: 0x0, symName: __ZNKSt3__16vectorIiNS_9allocatorIiEEE8max_sizeEv, symObjAddr: 0x4DD8, symBinAddr: 0x100006514, symSize: 0x60 }
  - { offsetInCU: 0x10B3A, offset: 0x10B3A, size: 0x8, addend: 0x0, symName: __ZNKSt3__16vectorIiNS_9allocatorIiEEE20__throw_length_errorB8ne180100Ev, symObjAddr: 0x4E38, symBinAddr: 0x100006574, symSize: 0x1C }
  - { offsetInCU: 0x10B5F, offset: 0x10B5F, size: 0x8, addend: 0x0, symName: __ZNSt3__16vectorIiNS_9allocatorIiEEE7__allocB8ne180100Ev, symObjAddr: 0x4E94, symBinAddr: 0x1000065D0, symSize: 0x28 }
  - { offsetInCU: 0x10B84, offset: 0x10B84, size: 0x8, addend: 0x0, symName: __ZNSt3__16vectorIiNS_9allocatorIiEEE9__end_capB8ne180100Ev, symObjAddr: 0x4EBC, symBinAddr: 0x1000065F8, symSize: 0x28 }
  - { offsetInCU: 0x10BA9, offset: 0x10BA9, size: 0x8, addend: 0x0, symName: __ZNKSt3__16vectorIiNS_9allocatorIiEEE14__annotate_newB8ne180100Em, symObjAddr: 0x4EE4, symBinAddr: 0x100006620, symSize: 0x14 }
  - { offsetInCU: 0x10BE7, offset: 0x10BE7, size: 0x8, addend: 0x0, symName: __ZNSt3__116allocator_traitsINS_9allocatorIiEEE8max_sizeB8ne180100IS2_vEEmRKS2_, symObjAddr: 0x4EF8, symBinAddr: 0x100006634, symSize: 0x24 }
  - { offsetInCU: 0x10C15, offset: 0x10C15, size: 0x8, addend: 0x0, symName: __ZNKSt3__16vectorIiNS_9allocatorIiEEE7__allocB8ne180100Ev, symObjAddr: 0x4F1C, symBinAddr: 0x100006658, symSize: 0x28 }
  - { offsetInCU: 0x10C3A, offset: 0x10C3A, size: 0x8, addend: 0x0, symName: __ZNKSt3__19allocatorIiE8max_sizeB8ne180100Ev, symObjAddr: 0x4F44, symBinAddr: 0x100006680, symSize: 0x14 }
  - { offsetInCU: 0x10C5F, offset: 0x10C5F, size: 0x8, addend: 0x0, symName: __ZNKSt3__117__compressed_pairIPiNS_9allocatorIiEEE6secondB8ne180100Ev, symObjAddr: 0x4F58, symBinAddr: 0x100006694, symSize: 0x24 }
  - { offsetInCU: 0x10C84, offset: 0x10C84, size: 0x8, addend: 0x0, symName: __ZNKSt3__122__compressed_pair_elemINS_9allocatorIiEELi1ELb1EE5__getB8ne180100Ev, symObjAddr: 0x4F7C, symBinAddr: 0x1000066B8, symSize: 0x14 }
  - { offsetInCU: 0x10CA9, offset: 0x10CA9, size: 0x8, addend: 0x0, symName: __ZNSt3__19allocatorIiE8allocateB8ne180100Em, symObjAddr: 0x4F90, symBinAddr: 0x1000066CC, symSize: 0x58 }
  - { offsetInCU: 0x10CDC, offset: 0x10CDC, size: 0x8, addend: 0x0, symName: __ZNSt3__117__compressed_pairIPiNS_9allocatorIiEEE6secondB8ne180100Ev, symObjAddr: 0x4FE8, symBinAddr: 0x100006724, symSize: 0x24 }
  - { offsetInCU: 0x10D01, offset: 0x10D01, size: 0x8, addend: 0x0, symName: __ZNSt3__122__compressed_pair_elemINS_9allocatorIiEELi1ELb1EE5__getB8ne180100Ev, symObjAddr: 0x500C, symBinAddr: 0x100006748, symSize: 0x14 }
  - { offsetInCU: 0x10D26, offset: 0x10D26, size: 0x8, addend: 0x0, symName: __ZNSt3__117__compressed_pairIPiNS_9allocatorIiEEE5firstB8ne180100Ev, symObjAddr: 0x5020, symBinAddr: 0x10000675C, symSize: 0x24 }
  - { offsetInCU: 0x10D4B, offset: 0x10D4B, size: 0x8, addend: 0x0, symName: __ZNSt3__122__compressed_pair_elemIPiLi0ELb0EE5__getB8ne180100Ev, symObjAddr: 0x5044, symBinAddr: 0x100006780, symSize: 0x14 }
  - { offsetInCU: 0x10D89, offset: 0x10D89, size: 0x8, addend: 0x0, symName: __ZNSt3__16vectorIiNS_9allocatorIiEEE21_ConstructTransactionC1B8ne180100ERS3_m, symObjAddr: 0x5058, symBinAddr: 0x100006794, symSize: 0x3C }
  - { offsetInCU: 0x10DD0, offset: 0x10DD0, size: 0x8, addend: 0x0, symName: __ZNSt3__16vectorIiNS_9allocatorIiEEE21_ConstructTransactionD1B8ne180100Ev, symObjAddr: 0x5114, symBinAddr: 0x100006850, symSize: 0x2C }
  - { offsetInCU: 0x10DF9, offset: 0x10DF9, size: 0x8, addend: 0x0, symName: __ZNSt3__16vectorIiNS_9allocatorIiEEE21_ConstructTransactionC2B8ne180100ERS3_m, symObjAddr: 0x5140, symBinAddr: 0x10000687C, symSize: 0x44 }
  - { offsetInCU: 0x10E5E, offset: 0x10E5E, size: 0x8, addend: 0x0, symName: __ZNSt3__14pairIPKiS2_EC1B8ne180100IS2_S2_Li0EEEOT_OT0_, symObjAddr: 0x52D8, symBinAddr: 0x100006A14, symSize: 0x3C }
  - { offsetInCU: 0x10EBB, offset: 0x10EBB, size: 0x8, addend: 0x0, symName: __ZNSt3__14pairIPKiS2_EC2B8ne180100IS2_S2_Li0EEEOT_OT0_, symObjAddr: 0x5314, symBinAddr: 0x100006A50, symSize: 0x34 }
  - { offsetInCU: 0x10F18, offset: 0x10F18, size: 0x8, addend: 0x0, symName: __ZNSt3__118__unwrap_iter_implIPKiLb1EE8__unwrapB8ne180100ES2_, symObjAddr: 0x5348, symBinAddr: 0x100006A84, symSize: 0x24 }
  - { offsetInCU: 0x10F54, offset: 0x10F54, size: 0x8, addend: 0x0, symName: __ZNKSt3__114__copy_trivialclB8ne180100IKiiLi0EEENS_4pairIPT_PT0_EES5_S5_S7_, symObjAddr: 0x54FC, symBinAddr: 0x100006C38, symSize: 0x48 }
  - { offsetInCU: 0x10FC5, offset: 0x10FC5, size: 0x8, addend: 0x0, symName: __ZNSt3__14pairIPKiPiEC1B8ne180100IRS2_S3_Li0EEEOT_OT0_, symObjAddr: 0x56C4, symBinAddr: 0x100006E00, symSize: 0x3C }
  - { offsetInCU: 0x11022, offset: 0x11022, size: 0x8, addend: 0x0, symName: __ZNSt3__14pairIPKiPiEC2B8ne180100IRS2_S3_Li0EEEOT_OT0_, symObjAddr: 0x5700, symBinAddr: 0x100006E3C, symSize: 0x34 }
  - { offsetInCU: 0x1107F, offset: 0x1107F, size: 0x8, addend: 0x0, symName: __ZNSt3__14pairIPKiPiEC1B8ne180100IS2_S3_Li0EEEOT_OT0_, symObjAddr: 0x5734, symBinAddr: 0x100006E70, symSize: 0x3C }
  - { offsetInCU: 0x110DC, offset: 0x110DC, size: 0x8, addend: 0x0, symName: __ZNSt3__14pairIPKiPiEC2B8ne180100IS2_S3_Li0EEEOT_OT0_, symObjAddr: 0x5770, symBinAddr: 0x100006EAC, symSize: 0x34 }
  - { offsetInCU: 0x11139, offset: 0x11139, size: 0x8, addend: 0x0, symName: __ZNSt3__118__unwrap_iter_implIPKiLb1EE8__rewrapB8ne180100ES2_S2_, symObjAddr: 0x57E0, symBinAddr: 0x100006F1C, symSize: 0x50 }
  - { offsetInCU: 0x1116A, offset: 0x1116A, size: 0x8, addend: 0x0, symName: __ZNSt3__118__unwrap_iter_implIPiLb1EE8__unwrapB8ne180100ES1_, symObjAddr: 0x5830, symBinAddr: 0x100006F6C, symSize: 0x24 }
  - { offsetInCU: 0x1118D, offset: 0x1118D, size: 0x8, addend: 0x0, symName: __ZNSt3__118__unwrap_iter_implIPiLb1EE8__rewrapB8ne180100ES1_S1_, symObjAddr: 0x5868, symBinAddr: 0x100006FA4, symSize: 0x50 }
  - { offsetInCU: 0x111BE, offset: 0x111BE, size: 0x8, addend: 0x0, symName: __ZNSt3__16vectorIiNS_9allocatorIiEEE21_ConstructTransactionD2B8ne180100Ev, symObjAddr: 0x58B8, symBinAddr: 0x100006FF4, symSize: 0x20 }
  - { offsetInCU: 0x111E7, offset: 0x111E7, size: 0x8, addend: 0x0, symName: __ZNSt3__128__exception_guard_exceptionsINS_6vectorIiNS_9allocatorIiEEE16__destroy_vectorEED2B8ne180100Ev, symObjAddr: 0x58D8, symBinAddr: 0x100007014, symSize: 0x50 }
  - { offsetInCU: 0x11210, offset: 0x11210, size: 0x8, addend: 0x0, symName: __ZNSt3__16vectorIiNS_9allocatorIiEEE16__destroy_vectorclB8ne180100Ev, symObjAddr: 0x5928, symBinAddr: 0x100007064, symSize: 0x90 }
  - { offsetInCU: 0x11235, offset: 0x11235, size: 0x8, addend: 0x0, symName: __ZNSt3__16vectorIiNS_9allocatorIiEEE7__clearB8ne180100Ev, symObjAddr: 0x59B8, symBinAddr: 0x1000070F4, symSize: 0x28 }
  - { offsetInCU: 0x1125A, offset: 0x1125A, size: 0x8, addend: 0x0, symName: __ZNKSt3__16vectorIiNS_9allocatorIiEEE17__annotate_deleteB8ne180100Ev, symObjAddr: 0x59E0, symBinAddr: 0x10000711C, symSize: 0x10 }
  - { offsetInCU: 0x1127F, offset: 0x1127F, size: 0x8, addend: 0x0, symName: __ZNSt3__116allocator_traitsINS_9allocatorIiEEE10deallocateB8ne180100ERS2_Pim, symObjAddr: 0x59F0, symBinAddr: 0x10000712C, symSize: 0x34 }
  - { offsetInCU: 0x112C1, offset: 0x112C1, size: 0x8, addend: 0x0, symName: __ZNKSt3__16vectorIiNS_9allocatorIiEEE8capacityB8ne180100Ev, symObjAddr: 0x5A24, symBinAddr: 0x100007160, symSize: 0x40 }
  - { offsetInCU: 0x112E6, offset: 0x112E6, size: 0x8, addend: 0x0, symName: __ZNSt3__16vectorIiNS_9allocatorIiEEE22__base_destruct_at_endB8ne180100EPi, symObjAddr: 0x5A64, symBinAddr: 0x1000071A0, symSize: 0x8C }
  - { offsetInCU: 0x11329, offset: 0x11329, size: 0x8, addend: 0x0, symName: __ZNSt3__116allocator_traitsINS_9allocatorIiEEE7destroyB8ne180100IivEEvRS2_PT_, symObjAddr: 0x5AF0, symBinAddr: 0x10000722C, symSize: 0x2C }
  - { offsetInCU: 0x11366, offset: 0x11366, size: 0x8, addend: 0x0, symName: __ZNSt3__19allocatorIiE7destroyB8ne180100EPi, symObjAddr: 0x5B1C, symBinAddr: 0x100007258, symSize: 0x14 }
  - { offsetInCU: 0x11399, offset: 0x11399, size: 0x8, addend: 0x0, symName: __ZNSt3__19allocatorIiE10deallocateB8ne180100EPim, symObjAddr: 0x5B30, symBinAddr: 0x10000726C, symSize: 0x40 }
  - { offsetInCU: 0x113DA, offset: 0x113DA, size: 0x8, addend: 0x0, symName: __ZNKSt3__16vectorIiNS_9allocatorIiEEE9__end_capB8ne180100Ev, symObjAddr: 0x5B70, symBinAddr: 0x1000072AC, symSize: 0x28 }
  - { offsetInCU: 0x113FF, offset: 0x113FF, size: 0x8, addend: 0x0, symName: __ZNKSt3__117__compressed_pairIPiNS_9allocatorIiEEE5firstB8ne180100Ev, symObjAddr: 0x5B98, symBinAddr: 0x1000072D4, symSize: 0x24 }
  - { offsetInCU: 0x11424, offset: 0x11424, size: 0x8, addend: 0x0, symName: __ZNKSt3__122__compressed_pair_elemIPiLi0ELb0EE5__getB8ne180100Ev, symObjAddr: 0x5BBC, symBinAddr: 0x1000072F8, symSize: 0x14 }
  - { offsetInCU: 0x11449, offset: 0x11449, size: 0x8, addend: 0x0, symName: __ZNSt3__16vectorIiNS_9allocatorIiEEED2B8ne180100Ev, symObjAddr: 0x5BD0, symBinAddr: 0x10000730C, symSize: 0x40 }
  - { offsetInCU: 0x11472, offset: 0x11472, size: 0x8, addend: 0x0, symName: __ZNSt3__16vectorIiNS_9allocatorIiEEE11__make_iterB8ne180100EPi, symObjAddr: 0x5C10, symBinAddr: 0x10000734C, symSize: 0x30 }
  - { offsetInCU: 0x114A6, offset: 0x114A6, size: 0x8, addend: 0x0, symName: __ZNSt3__111__wrap_iterIPiEC1B8ne180100ES1_, symObjAddr: 0x5C40, symBinAddr: 0x10000737C, symSize: 0x34 }
  - { offsetInCU: 0x114DD, offset: 0x114DD, size: 0x8, addend: 0x0, symName: __ZNSt3__111__wrap_iterIPiEC2B8ne180100ES1_, symObjAddr: 0x5C74, symBinAddr: 0x1000073B0, symSize: 0x20 }
  - { offsetInCU: 0x11514, offset: 0x11514, size: 0x8, addend: 0x0, symName: __ZNSt3__112basic_stringIcNS_11char_traitsIcEENS_9allocatorIcEEEC1B8ne180100EOS5_, symObjAddr: 0x5C94, symBinAddr: 0x1000073D0, symSize: 0x34 }
  - { offsetInCU: 0x1154C, offset: 0x1154C, size: 0x8, addend: 0x0, symName: __ZNSt3__112basic_stringIcNS_11char_traitsIcEENS_9allocatorIcEEEC2B8ne180100EOS5_, symObjAddr: 0x5CC8, symBinAddr: 0x100007404, symSize: 0xB8 }
  - { offsetInCU: 0x115B4, offset: 0x115B4, size: 0x8, addend: 0x0, symName: __ZZNSt3__112basic_stringIcNS_11char_traitsIcEENS_9allocatorIcEEEC1B8ne180100EOS5_ENKUlRS5_E_clES7_, symObjAddr: 0x5D80, symBinAddr: 0x1000074BC, symSize: 0x40 }
  - { offsetInCU: 0x115EC, offset: 0x115EC, size: 0x8, addend: 0x0, symName: __ZNSt3__117__compressed_pairINS_12basic_stringIcNS_11char_traitsIcEENS_9allocatorIcEEE5__repES5_E5firstB8ne180100Ev, symObjAddr: 0x5DC0, symBinAddr: 0x1000074FC, symSize: 0x24 }
  - { offsetInCU: 0x11611, offset: 0x11611, size: 0x8, addend: 0x0, symName: __ZNKSt3__112basic_stringIcNS_11char_traitsIcEENS_9allocatorIcEEE14__annotate_newB8ne180100Em, symObjAddr: 0x5DE4, symBinAddr: 0x100007520, symSize: 0x14 }
  - { offsetInCU: 0x11645, offset: 0x11645, size: 0x8, addend: 0x0, symName: __ZNKSt3__112basic_stringIcNS_11char_traitsIcEENS_9allocatorIcEEE17__annotate_deleteB8ne180100Ev, symObjAddr: 0x5DF8, symBinAddr: 0x100007534, symSize: 0x10 }
  - { offsetInCU: 0x1166A, offset: 0x1166A, size: 0x8, addend: 0x0, symName: __ZNSt3__122__compressed_pair_elemINS_12basic_stringIcNS_11char_traitsIcEENS_9allocatorIcEEE5__repELi0ELb0EE5__getB8ne180100Ev, symObjAddr: 0x5E08, symBinAddr: 0x100007544, symSize: 0x14 }
...
